ARM GAS  C:\Users\ULTIMA~1\AppData\Local\Temp\ccbIrIj9.s 			page 1


   1              		.cpu cortex-m3
   2              		.arch armv7-m
   3              		.fpu softvfp
   4              		.eabi_attribute 20, 1
   5              		.eabi_attribute 21, 1
   6              		.eabi_attribute 23, 3
   7              		.eabi_attribute 24, 1
   8              		.eabi_attribute 25, 1
   9              		.eabi_attribute 26, 1
  10              		.eabi_attribute 30, 6
  11              		.eabi_attribute 34, 1
  12              		.eabi_attribute 18, 4
  13              		.file	"stm32f1xx_hal_flash_ex.c"
  14              		.text
  15              	.Ltext0:
  16              		.cfi_sections	.debug_frame
  17              		.section	.text.HAL_FLASHEx_Erase,"ax",%progbits
  18              		.align	1
  19              		.global	HAL_FLASHEx_Erase
  20              		.syntax unified
  21              		.thumb
  22              		.thumb_func
  24              	HAL_FLASHEx_Erase:
  25              	.LFB65:
  26              		.file 1 "./Drivers/STM32F1xx_HAL_Driver/Src/stm32f1xx_hal_flash_ex.c"
   1:./Drivers/STM32F1xx_HAL_Driver/Src/stm32f1xx_hal_flash_ex.c **** /**
   2:./Drivers/STM32F1xx_HAL_Driver/Src/stm32f1xx_hal_flash_ex.c ****   ******************************************************************************
   3:./Drivers/STM32F1xx_HAL_Driver/Src/stm32f1xx_hal_flash_ex.c ****   * @file    stm32f1xx_hal_flash_ex.c
   4:./Drivers/STM32F1xx_HAL_Driver/Src/stm32f1xx_hal_flash_ex.c ****   * @author  MCD Application Team
   5:./Drivers/STM32F1xx_HAL_Driver/Src/stm32f1xx_hal_flash_ex.c ****   * @brief   Extended FLASH HAL module driver.
   6:./Drivers/STM32F1xx_HAL_Driver/Src/stm32f1xx_hal_flash_ex.c ****   *    
   7:./Drivers/STM32F1xx_HAL_Driver/Src/stm32f1xx_hal_flash_ex.c ****   *          This file provides firmware functions to manage the following 
   8:./Drivers/STM32F1xx_HAL_Driver/Src/stm32f1xx_hal_flash_ex.c ****   *          functionalities of the FLASH peripheral:
   9:./Drivers/STM32F1xx_HAL_Driver/Src/stm32f1xx_hal_flash_ex.c ****   *           + Extended Initialization/de-initialization functions
  10:./Drivers/STM32F1xx_HAL_Driver/Src/stm32f1xx_hal_flash_ex.c ****   *           + Extended I/O operation functions
  11:./Drivers/STM32F1xx_HAL_Driver/Src/stm32f1xx_hal_flash_ex.c ****   *           + Extended Peripheral Control functions 
  12:./Drivers/STM32F1xx_HAL_Driver/Src/stm32f1xx_hal_flash_ex.c ****   *         
  13:./Drivers/STM32F1xx_HAL_Driver/Src/stm32f1xx_hal_flash_ex.c ****   @verbatim
  14:./Drivers/STM32F1xx_HAL_Driver/Src/stm32f1xx_hal_flash_ex.c ****   ==============================================================================
  15:./Drivers/STM32F1xx_HAL_Driver/Src/stm32f1xx_hal_flash_ex.c ****                ##### Flash peripheral extended features  #####
  16:./Drivers/STM32F1xx_HAL_Driver/Src/stm32f1xx_hal_flash_ex.c ****   ==============================================================================
  17:./Drivers/STM32F1xx_HAL_Driver/Src/stm32f1xx_hal_flash_ex.c ****            
  18:./Drivers/STM32F1xx_HAL_Driver/Src/stm32f1xx_hal_flash_ex.c ****                       ##### How to use this driver #####
  19:./Drivers/STM32F1xx_HAL_Driver/Src/stm32f1xx_hal_flash_ex.c ****   ==============================================================================
  20:./Drivers/STM32F1xx_HAL_Driver/Src/stm32f1xx_hal_flash_ex.c ****   [..] This driver provides functions to configure and program the FLASH memory 
  21:./Drivers/STM32F1xx_HAL_Driver/Src/stm32f1xx_hal_flash_ex.c ****        of all STM32F1xxx devices. It includes
  22:./Drivers/STM32F1xx_HAL_Driver/Src/stm32f1xx_hal_flash_ex.c ****        
  23:./Drivers/STM32F1xx_HAL_Driver/Src/stm32f1xx_hal_flash_ex.c ****         (++) Set/Reset the write protection
  24:./Drivers/STM32F1xx_HAL_Driver/Src/stm32f1xx_hal_flash_ex.c ****         (++) Program the user Option Bytes
  25:./Drivers/STM32F1xx_HAL_Driver/Src/stm32f1xx_hal_flash_ex.c ****         (++) Get the Read protection Level
  26:./Drivers/STM32F1xx_HAL_Driver/Src/stm32f1xx_hal_flash_ex.c ****   
  27:./Drivers/STM32F1xx_HAL_Driver/Src/stm32f1xx_hal_flash_ex.c ****   @endverbatim
  28:./Drivers/STM32F1xx_HAL_Driver/Src/stm32f1xx_hal_flash_ex.c ****   ******************************************************************************
  29:./Drivers/STM32F1xx_HAL_Driver/Src/stm32f1xx_hal_flash_ex.c ****   * @attention
  30:./Drivers/STM32F1xx_HAL_Driver/Src/stm32f1xx_hal_flash_ex.c ****   *
  31:./Drivers/STM32F1xx_HAL_Driver/Src/stm32f1xx_hal_flash_ex.c ****   * <h2><center>&copy; Copyright (c) 2016 STMicroelectronics.
  32:./Drivers/STM32F1xx_HAL_Driver/Src/stm32f1xx_hal_flash_ex.c ****   * All rights reserved.</center></h2>
ARM GAS  C:\Users\ULTIMA~1\AppData\Local\Temp\ccbIrIj9.s 			page 2


  33:./Drivers/STM32F1xx_HAL_Driver/Src/stm32f1xx_hal_flash_ex.c ****   *
  34:./Drivers/STM32F1xx_HAL_Driver/Src/stm32f1xx_hal_flash_ex.c ****   * This software component is licensed by ST under BSD 3-Clause license,
  35:./Drivers/STM32F1xx_HAL_Driver/Src/stm32f1xx_hal_flash_ex.c ****   * the "License"; You may not use this file except in compliance with the
  36:./Drivers/STM32F1xx_HAL_Driver/Src/stm32f1xx_hal_flash_ex.c ****   * License. You may obtain a copy of the License at:
  37:./Drivers/STM32F1xx_HAL_Driver/Src/stm32f1xx_hal_flash_ex.c ****   *                        opensource.org/licenses/BSD-3-Clause
  38:./Drivers/STM32F1xx_HAL_Driver/Src/stm32f1xx_hal_flash_ex.c ****   *
  39:./Drivers/STM32F1xx_HAL_Driver/Src/stm32f1xx_hal_flash_ex.c ****   ******************************************************************************
  40:./Drivers/STM32F1xx_HAL_Driver/Src/stm32f1xx_hal_flash_ex.c ****   */
  41:./Drivers/STM32F1xx_HAL_Driver/Src/stm32f1xx_hal_flash_ex.c **** 
  42:./Drivers/STM32F1xx_HAL_Driver/Src/stm32f1xx_hal_flash_ex.c **** /* Includes ------------------------------------------------------------------*/
  43:./Drivers/STM32F1xx_HAL_Driver/Src/stm32f1xx_hal_flash_ex.c **** #include "stm32f1xx_hal.h"
  44:./Drivers/STM32F1xx_HAL_Driver/Src/stm32f1xx_hal_flash_ex.c **** 
  45:./Drivers/STM32F1xx_HAL_Driver/Src/stm32f1xx_hal_flash_ex.c **** /** @addtogroup STM32F1xx_HAL_Driver
  46:./Drivers/STM32F1xx_HAL_Driver/Src/stm32f1xx_hal_flash_ex.c ****   * @{
  47:./Drivers/STM32F1xx_HAL_Driver/Src/stm32f1xx_hal_flash_ex.c ****   */
  48:./Drivers/STM32F1xx_HAL_Driver/Src/stm32f1xx_hal_flash_ex.c **** #ifdef HAL_FLASH_MODULE_ENABLED
  49:./Drivers/STM32F1xx_HAL_Driver/Src/stm32f1xx_hal_flash_ex.c **** 
  50:./Drivers/STM32F1xx_HAL_Driver/Src/stm32f1xx_hal_flash_ex.c **** /** @addtogroup FLASH
  51:./Drivers/STM32F1xx_HAL_Driver/Src/stm32f1xx_hal_flash_ex.c ****   * @{
  52:./Drivers/STM32F1xx_HAL_Driver/Src/stm32f1xx_hal_flash_ex.c ****   */
  53:./Drivers/STM32F1xx_HAL_Driver/Src/stm32f1xx_hal_flash_ex.c **** /** @addtogroup FLASH_Private_Variables
  54:./Drivers/STM32F1xx_HAL_Driver/Src/stm32f1xx_hal_flash_ex.c ****  * @{
  55:./Drivers/STM32F1xx_HAL_Driver/Src/stm32f1xx_hal_flash_ex.c ****  */
  56:./Drivers/STM32F1xx_HAL_Driver/Src/stm32f1xx_hal_flash_ex.c **** /* Variables used for Erase pages under interruption*/
  57:./Drivers/STM32F1xx_HAL_Driver/Src/stm32f1xx_hal_flash_ex.c **** extern FLASH_ProcessTypeDef pFlash;
  58:./Drivers/STM32F1xx_HAL_Driver/Src/stm32f1xx_hal_flash_ex.c **** /**
  59:./Drivers/STM32F1xx_HAL_Driver/Src/stm32f1xx_hal_flash_ex.c ****   * @}
  60:./Drivers/STM32F1xx_HAL_Driver/Src/stm32f1xx_hal_flash_ex.c ****   */
  61:./Drivers/STM32F1xx_HAL_Driver/Src/stm32f1xx_hal_flash_ex.c **** 
  62:./Drivers/STM32F1xx_HAL_Driver/Src/stm32f1xx_hal_flash_ex.c **** /**
  63:./Drivers/STM32F1xx_HAL_Driver/Src/stm32f1xx_hal_flash_ex.c ****   * @}
  64:./Drivers/STM32F1xx_HAL_Driver/Src/stm32f1xx_hal_flash_ex.c ****   */
  65:./Drivers/STM32F1xx_HAL_Driver/Src/stm32f1xx_hal_flash_ex.c ****   
  66:./Drivers/STM32F1xx_HAL_Driver/Src/stm32f1xx_hal_flash_ex.c **** /** @defgroup FLASHEx FLASHEx
  67:./Drivers/STM32F1xx_HAL_Driver/Src/stm32f1xx_hal_flash_ex.c ****   * @brief FLASH HAL Extension module driver
  68:./Drivers/STM32F1xx_HAL_Driver/Src/stm32f1xx_hal_flash_ex.c ****   * @{
  69:./Drivers/STM32F1xx_HAL_Driver/Src/stm32f1xx_hal_flash_ex.c ****   */
  70:./Drivers/STM32F1xx_HAL_Driver/Src/stm32f1xx_hal_flash_ex.c **** 
  71:./Drivers/STM32F1xx_HAL_Driver/Src/stm32f1xx_hal_flash_ex.c **** /* Private typedef -----------------------------------------------------------*/
  72:./Drivers/STM32F1xx_HAL_Driver/Src/stm32f1xx_hal_flash_ex.c **** /* Private define ------------------------------------------------------------*/
  73:./Drivers/STM32F1xx_HAL_Driver/Src/stm32f1xx_hal_flash_ex.c **** /** @defgroup FLASHEx_Private_Constants FLASHEx Private Constants
  74:./Drivers/STM32F1xx_HAL_Driver/Src/stm32f1xx_hal_flash_ex.c ****  * @{
  75:./Drivers/STM32F1xx_HAL_Driver/Src/stm32f1xx_hal_flash_ex.c ****  */
  76:./Drivers/STM32F1xx_HAL_Driver/Src/stm32f1xx_hal_flash_ex.c **** #define FLASH_POSITION_IWDGSW_BIT        FLASH_OBR_IWDG_SW_Pos
  77:./Drivers/STM32F1xx_HAL_Driver/Src/stm32f1xx_hal_flash_ex.c **** #define FLASH_POSITION_OB_USERDATA0_BIT  FLASH_OBR_DATA0_Pos
  78:./Drivers/STM32F1xx_HAL_Driver/Src/stm32f1xx_hal_flash_ex.c **** #define FLASH_POSITION_OB_USERDATA1_BIT  FLASH_OBR_DATA1_Pos
  79:./Drivers/STM32F1xx_HAL_Driver/Src/stm32f1xx_hal_flash_ex.c **** /**
  80:./Drivers/STM32F1xx_HAL_Driver/Src/stm32f1xx_hal_flash_ex.c ****   * @}
  81:./Drivers/STM32F1xx_HAL_Driver/Src/stm32f1xx_hal_flash_ex.c ****   */
  82:./Drivers/STM32F1xx_HAL_Driver/Src/stm32f1xx_hal_flash_ex.c **** 
  83:./Drivers/STM32F1xx_HAL_Driver/Src/stm32f1xx_hal_flash_ex.c **** /* Private macro -------------------------------------------------------------*/
  84:./Drivers/STM32F1xx_HAL_Driver/Src/stm32f1xx_hal_flash_ex.c **** /** @defgroup FLASHEx_Private_Macros FLASHEx Private Macros
  85:./Drivers/STM32F1xx_HAL_Driver/Src/stm32f1xx_hal_flash_ex.c ****   * @{
  86:./Drivers/STM32F1xx_HAL_Driver/Src/stm32f1xx_hal_flash_ex.c ****   */
  87:./Drivers/STM32F1xx_HAL_Driver/Src/stm32f1xx_hal_flash_ex.c **** /**
  88:./Drivers/STM32F1xx_HAL_Driver/Src/stm32f1xx_hal_flash_ex.c ****   * @}
  89:./Drivers/STM32F1xx_HAL_Driver/Src/stm32f1xx_hal_flash_ex.c ****   */ 
ARM GAS  C:\Users\ULTIMA~1\AppData\Local\Temp\ccbIrIj9.s 			page 3


  90:./Drivers/STM32F1xx_HAL_Driver/Src/stm32f1xx_hal_flash_ex.c **** 
  91:./Drivers/STM32F1xx_HAL_Driver/Src/stm32f1xx_hal_flash_ex.c **** /* Private variables ---------------------------------------------------------*/
  92:./Drivers/STM32F1xx_HAL_Driver/Src/stm32f1xx_hal_flash_ex.c **** /* Private function prototypes -----------------------------------------------*/
  93:./Drivers/STM32F1xx_HAL_Driver/Src/stm32f1xx_hal_flash_ex.c **** /** @defgroup FLASHEx_Private_Functions FLASHEx Private Functions
  94:./Drivers/STM32F1xx_HAL_Driver/Src/stm32f1xx_hal_flash_ex.c ****  * @{
  95:./Drivers/STM32F1xx_HAL_Driver/Src/stm32f1xx_hal_flash_ex.c ****  */
  96:./Drivers/STM32F1xx_HAL_Driver/Src/stm32f1xx_hal_flash_ex.c **** /* Erase operations */
  97:./Drivers/STM32F1xx_HAL_Driver/Src/stm32f1xx_hal_flash_ex.c **** static void              FLASH_MassErase(uint32_t Banks);
  98:./Drivers/STM32F1xx_HAL_Driver/Src/stm32f1xx_hal_flash_ex.c **** void    FLASH_PageErase(uint32_t PageAddress);
  99:./Drivers/STM32F1xx_HAL_Driver/Src/stm32f1xx_hal_flash_ex.c **** 
 100:./Drivers/STM32F1xx_HAL_Driver/Src/stm32f1xx_hal_flash_ex.c **** /* Option bytes control */
 101:./Drivers/STM32F1xx_HAL_Driver/Src/stm32f1xx_hal_flash_ex.c **** static HAL_StatusTypeDef FLASH_OB_EnableWRP(uint32_t WriteProtectPage);
 102:./Drivers/STM32F1xx_HAL_Driver/Src/stm32f1xx_hal_flash_ex.c **** static HAL_StatusTypeDef FLASH_OB_DisableWRP(uint32_t WriteProtectPage);
 103:./Drivers/STM32F1xx_HAL_Driver/Src/stm32f1xx_hal_flash_ex.c **** static HAL_StatusTypeDef FLASH_OB_RDP_LevelConfig(uint8_t ReadProtectLevel);
 104:./Drivers/STM32F1xx_HAL_Driver/Src/stm32f1xx_hal_flash_ex.c **** static HAL_StatusTypeDef FLASH_OB_UserConfig(uint8_t UserConfig);
 105:./Drivers/STM32F1xx_HAL_Driver/Src/stm32f1xx_hal_flash_ex.c **** static HAL_StatusTypeDef FLASH_OB_ProgramData(uint32_t Address, uint8_t Data);
 106:./Drivers/STM32F1xx_HAL_Driver/Src/stm32f1xx_hal_flash_ex.c **** static uint32_t          FLASH_OB_GetWRP(void);
 107:./Drivers/STM32F1xx_HAL_Driver/Src/stm32f1xx_hal_flash_ex.c **** static uint32_t          FLASH_OB_GetRDP(void);
 108:./Drivers/STM32F1xx_HAL_Driver/Src/stm32f1xx_hal_flash_ex.c **** static uint8_t           FLASH_OB_GetUser(void);
 109:./Drivers/STM32F1xx_HAL_Driver/Src/stm32f1xx_hal_flash_ex.c **** 
 110:./Drivers/STM32F1xx_HAL_Driver/Src/stm32f1xx_hal_flash_ex.c **** /**
 111:./Drivers/STM32F1xx_HAL_Driver/Src/stm32f1xx_hal_flash_ex.c ****   * @}
 112:./Drivers/STM32F1xx_HAL_Driver/Src/stm32f1xx_hal_flash_ex.c ****   */
 113:./Drivers/STM32F1xx_HAL_Driver/Src/stm32f1xx_hal_flash_ex.c **** 
 114:./Drivers/STM32F1xx_HAL_Driver/Src/stm32f1xx_hal_flash_ex.c **** /* Exported functions ---------------------------------------------------------*/
 115:./Drivers/STM32F1xx_HAL_Driver/Src/stm32f1xx_hal_flash_ex.c **** /** @defgroup FLASHEx_Exported_Functions FLASHEx Exported Functions
 116:./Drivers/STM32F1xx_HAL_Driver/Src/stm32f1xx_hal_flash_ex.c ****   * @{
 117:./Drivers/STM32F1xx_HAL_Driver/Src/stm32f1xx_hal_flash_ex.c ****   */
 118:./Drivers/STM32F1xx_HAL_Driver/Src/stm32f1xx_hal_flash_ex.c ****   
 119:./Drivers/STM32F1xx_HAL_Driver/Src/stm32f1xx_hal_flash_ex.c **** /** @defgroup FLASHEx_Exported_Functions_Group1 FLASHEx Memory Erasing functions
 120:./Drivers/STM32F1xx_HAL_Driver/Src/stm32f1xx_hal_flash_ex.c ****  *  @brief   FLASH Memory Erasing functions
 121:./Drivers/STM32F1xx_HAL_Driver/Src/stm32f1xx_hal_flash_ex.c ****   *
 122:./Drivers/STM32F1xx_HAL_Driver/Src/stm32f1xx_hal_flash_ex.c **** @verbatim   
 123:./Drivers/STM32F1xx_HAL_Driver/Src/stm32f1xx_hal_flash_ex.c ****   ==============================================================================
 124:./Drivers/STM32F1xx_HAL_Driver/Src/stm32f1xx_hal_flash_ex.c ****                 ##### FLASH Erasing Programming functions ##### 
 125:./Drivers/STM32F1xx_HAL_Driver/Src/stm32f1xx_hal_flash_ex.c ****   ==============================================================================
 126:./Drivers/STM32F1xx_HAL_Driver/Src/stm32f1xx_hal_flash_ex.c **** 
 127:./Drivers/STM32F1xx_HAL_Driver/Src/stm32f1xx_hal_flash_ex.c ****     [..] The FLASH Memory Erasing functions, includes the following functions:
 128:./Drivers/STM32F1xx_HAL_Driver/Src/stm32f1xx_hal_flash_ex.c ****     (+) @ref HAL_FLASHEx_Erase: return only when erase has been done
 129:./Drivers/STM32F1xx_HAL_Driver/Src/stm32f1xx_hal_flash_ex.c ****     (+) @ref HAL_FLASHEx_Erase_IT: end of erase is done when @ref HAL_FLASH_EndOfOperationCallback 
 130:./Drivers/STM32F1xx_HAL_Driver/Src/stm32f1xx_hal_flash_ex.c ****         is called with parameter 0xFFFFFFFF
 131:./Drivers/STM32F1xx_HAL_Driver/Src/stm32f1xx_hal_flash_ex.c **** 
 132:./Drivers/STM32F1xx_HAL_Driver/Src/stm32f1xx_hal_flash_ex.c ****     [..] Any operation of erase should follow these steps:
 133:./Drivers/STM32F1xx_HAL_Driver/Src/stm32f1xx_hal_flash_ex.c ****     (#) Call the @ref HAL_FLASH_Unlock() function to enable the flash control register and 
 134:./Drivers/STM32F1xx_HAL_Driver/Src/stm32f1xx_hal_flash_ex.c ****         program memory access.
 135:./Drivers/STM32F1xx_HAL_Driver/Src/stm32f1xx_hal_flash_ex.c ****     (#) Call the desired function to erase page.
 136:./Drivers/STM32F1xx_HAL_Driver/Src/stm32f1xx_hal_flash_ex.c ****     (#) Call the @ref HAL_FLASH_Lock() to disable the flash program memory access 
 137:./Drivers/STM32F1xx_HAL_Driver/Src/stm32f1xx_hal_flash_ex.c ****        (recommended to protect the FLASH memory against possible unwanted operation).
 138:./Drivers/STM32F1xx_HAL_Driver/Src/stm32f1xx_hal_flash_ex.c **** 
 139:./Drivers/STM32F1xx_HAL_Driver/Src/stm32f1xx_hal_flash_ex.c **** @endverbatim
 140:./Drivers/STM32F1xx_HAL_Driver/Src/stm32f1xx_hal_flash_ex.c ****   * @{
 141:./Drivers/STM32F1xx_HAL_Driver/Src/stm32f1xx_hal_flash_ex.c ****   */
 142:./Drivers/STM32F1xx_HAL_Driver/Src/stm32f1xx_hal_flash_ex.c ****   
 143:./Drivers/STM32F1xx_HAL_Driver/Src/stm32f1xx_hal_flash_ex.c **** 
 144:./Drivers/STM32F1xx_HAL_Driver/Src/stm32f1xx_hal_flash_ex.c **** /**
 145:./Drivers/STM32F1xx_HAL_Driver/Src/stm32f1xx_hal_flash_ex.c ****   * @brief  Perform a mass erase or erase the specified FLASH memory pages
 146:./Drivers/STM32F1xx_HAL_Driver/Src/stm32f1xx_hal_flash_ex.c ****   * @note   To correctly run this function, the @ref HAL_FLASH_Unlock() function
ARM GAS  C:\Users\ULTIMA~1\AppData\Local\Temp\ccbIrIj9.s 			page 4


 147:./Drivers/STM32F1xx_HAL_Driver/Src/stm32f1xx_hal_flash_ex.c ****   *         must be called before.
 148:./Drivers/STM32F1xx_HAL_Driver/Src/stm32f1xx_hal_flash_ex.c ****   *         Call the @ref HAL_FLASH_Lock() to disable the flash memory access 
 149:./Drivers/STM32F1xx_HAL_Driver/Src/stm32f1xx_hal_flash_ex.c ****   *         (recommended to protect the FLASH memory against possible unwanted operation)
 150:./Drivers/STM32F1xx_HAL_Driver/Src/stm32f1xx_hal_flash_ex.c ****   * @param[in]  pEraseInit pointer to an FLASH_EraseInitTypeDef structure that
 151:./Drivers/STM32F1xx_HAL_Driver/Src/stm32f1xx_hal_flash_ex.c ****   *         contains the configuration information for the erasing.
 152:./Drivers/STM32F1xx_HAL_Driver/Src/stm32f1xx_hal_flash_ex.c ****   *
 153:./Drivers/STM32F1xx_HAL_Driver/Src/stm32f1xx_hal_flash_ex.c ****   * @param[out]  PageError pointer to variable  that
 154:./Drivers/STM32F1xx_HAL_Driver/Src/stm32f1xx_hal_flash_ex.c ****   *         contains the configuration information on faulty page in case of error
 155:./Drivers/STM32F1xx_HAL_Driver/Src/stm32f1xx_hal_flash_ex.c ****   *         (0xFFFFFFFF means that all the pages have been correctly erased)
 156:./Drivers/STM32F1xx_HAL_Driver/Src/stm32f1xx_hal_flash_ex.c ****   *
 157:./Drivers/STM32F1xx_HAL_Driver/Src/stm32f1xx_hal_flash_ex.c ****   * @retval HAL_StatusTypeDef HAL Status
 158:./Drivers/STM32F1xx_HAL_Driver/Src/stm32f1xx_hal_flash_ex.c ****   */
 159:./Drivers/STM32F1xx_HAL_Driver/Src/stm32f1xx_hal_flash_ex.c **** HAL_StatusTypeDef HAL_FLASHEx_Erase(FLASH_EraseInitTypeDef *pEraseInit, uint32_t *PageError)
 160:./Drivers/STM32F1xx_HAL_Driver/Src/stm32f1xx_hal_flash_ex.c **** {
  27              		.loc 1 160 1
  28              		.cfi_startproc
  29              		@ args = 0, pretend = 0, frame = 16
  30              		@ frame_needed = 1, uses_anonymous_args = 0
  31 0000 80B5     		push	{r7, lr}
  32              		.cfi_def_cfa_offset 8
  33              		.cfi_offset 7, -8
  34              		.cfi_offset 14, -4
  35 0002 84B0     		sub	sp, sp, #16
  36              		.cfi_def_cfa_offset 24
  37 0004 00AF     		add	r7, sp, #0
  38              		.cfi_def_cfa_register 7
  39 0006 7860     		str	r0, [r7, #4]
  40 0008 3960     		str	r1, [r7]
 161:./Drivers/STM32F1xx_HAL_Driver/Src/stm32f1xx_hal_flash_ex.c ****   HAL_StatusTypeDef status = HAL_ERROR;
  41              		.loc 1 161 21
  42 000a 0123     		movs	r3, #1
  43 000c FB73     		strb	r3, [r7, #15]
 162:./Drivers/STM32F1xx_HAL_Driver/Src/stm32f1xx_hal_flash_ex.c ****   uint32_t address = 0U;
  44              		.loc 1 162 12
  45 000e 0023     		movs	r3, #0
  46 0010 BB60     		str	r3, [r7, #8]
 163:./Drivers/STM32F1xx_HAL_Driver/Src/stm32f1xx_hal_flash_ex.c **** 
 164:./Drivers/STM32F1xx_HAL_Driver/Src/stm32f1xx_hal_flash_ex.c ****   /* Process Locked */
 165:./Drivers/STM32F1xx_HAL_Driver/Src/stm32f1xx_hal_flash_ex.c ****   __HAL_LOCK(&pFlash);
  47              		.loc 1 165 3
  48 0012 2F4B     		ldr	r3, .L9
  49 0014 1B7E     		ldrb	r3, [r3, #24]	@ zero_extendqisi2
  50 0016 012B     		cmp	r3, #1
  51 0018 01D1     		bne	.L2
  52              		.loc 1 165 3 is_stmt 0 discriminator 1
  53 001a 0223     		movs	r3, #2
  54 001c 53E0     		b	.L3
  55              	.L2:
  56              		.loc 1 165 3 discriminator 2
  57 001e 2C4B     		ldr	r3, .L9
  58 0020 0122     		movs	r2, #1
  59 0022 1A76     		strb	r2, [r3, #24]
 166:./Drivers/STM32F1xx_HAL_Driver/Src/stm32f1xx_hal_flash_ex.c **** 
 167:./Drivers/STM32F1xx_HAL_Driver/Src/stm32f1xx_hal_flash_ex.c ****   /* Check the parameters */
 168:./Drivers/STM32F1xx_HAL_Driver/Src/stm32f1xx_hal_flash_ex.c ****   assert_param(IS_FLASH_TYPEERASE(pEraseInit->TypeErase));
 169:./Drivers/STM32F1xx_HAL_Driver/Src/stm32f1xx_hal_flash_ex.c **** 
 170:./Drivers/STM32F1xx_HAL_Driver/Src/stm32f1xx_hal_flash_ex.c ****   if (pEraseInit->TypeErase == FLASH_TYPEERASE_MASSERASE)
ARM GAS  C:\Users\ULTIMA~1\AppData\Local\Temp\ccbIrIj9.s 			page 5


  60              		.loc 1 170 17 is_stmt 1 discriminator 2
  61 0024 7B68     		ldr	r3, [r7, #4]
  62 0026 1B68     		ldr	r3, [r3]
  63              		.loc 1 170 6 discriminator 2
  64 0028 022B     		cmp	r3, #2
  65 002a 16D1     		bne	.L4
 171:./Drivers/STM32F1xx_HAL_Driver/Src/stm32f1xx_hal_flash_ex.c ****   {
 172:./Drivers/STM32F1xx_HAL_Driver/Src/stm32f1xx_hal_flash_ex.c **** #if defined(FLASH_BANK2_END)
 173:./Drivers/STM32F1xx_HAL_Driver/Src/stm32f1xx_hal_flash_ex.c ****     if (pEraseInit->Banks == FLASH_BANK_BOTH)
 174:./Drivers/STM32F1xx_HAL_Driver/Src/stm32f1xx_hal_flash_ex.c ****     {
 175:./Drivers/STM32F1xx_HAL_Driver/Src/stm32f1xx_hal_flash_ex.c ****       /* Mass Erase requested for Bank1 and Bank2 */
 176:./Drivers/STM32F1xx_HAL_Driver/Src/stm32f1xx_hal_flash_ex.c ****       /* Wait for last operation to be completed */
 177:./Drivers/STM32F1xx_HAL_Driver/Src/stm32f1xx_hal_flash_ex.c ****       if ((FLASH_WaitForLastOperation((uint32_t)FLASH_TIMEOUT_VALUE) == HAL_OK) && \
 178:./Drivers/STM32F1xx_HAL_Driver/Src/stm32f1xx_hal_flash_ex.c ****           (FLASH_WaitForLastOperationBank2((uint32_t)FLASH_TIMEOUT_VALUE) == HAL_OK))
 179:./Drivers/STM32F1xx_HAL_Driver/Src/stm32f1xx_hal_flash_ex.c ****       {
 180:./Drivers/STM32F1xx_HAL_Driver/Src/stm32f1xx_hal_flash_ex.c ****         /*Mass erase to be done*/
 181:./Drivers/STM32F1xx_HAL_Driver/Src/stm32f1xx_hal_flash_ex.c ****         FLASH_MassErase(FLASH_BANK_BOTH);
 182:./Drivers/STM32F1xx_HAL_Driver/Src/stm32f1xx_hal_flash_ex.c ****         
 183:./Drivers/STM32F1xx_HAL_Driver/Src/stm32f1xx_hal_flash_ex.c ****         /* Wait for last operation to be completed */
 184:./Drivers/STM32F1xx_HAL_Driver/Src/stm32f1xx_hal_flash_ex.c ****         if ((FLASH_WaitForLastOperation((uint32_t)FLASH_TIMEOUT_VALUE) == HAL_OK) && \
 185:./Drivers/STM32F1xx_HAL_Driver/Src/stm32f1xx_hal_flash_ex.c ****             (FLASH_WaitForLastOperationBank2((uint32_t)FLASH_TIMEOUT_VALUE) == HAL_OK))
 186:./Drivers/STM32F1xx_HAL_Driver/Src/stm32f1xx_hal_flash_ex.c ****         {
 187:./Drivers/STM32F1xx_HAL_Driver/Src/stm32f1xx_hal_flash_ex.c ****           status = HAL_OK;
 188:./Drivers/STM32F1xx_HAL_Driver/Src/stm32f1xx_hal_flash_ex.c ****         }
 189:./Drivers/STM32F1xx_HAL_Driver/Src/stm32f1xx_hal_flash_ex.c ****         
 190:./Drivers/STM32F1xx_HAL_Driver/Src/stm32f1xx_hal_flash_ex.c ****         /* If the erase operation is completed, disable the MER Bit */
 191:./Drivers/STM32F1xx_HAL_Driver/Src/stm32f1xx_hal_flash_ex.c ****         CLEAR_BIT(FLASH->CR, FLASH_CR_MER);
 192:./Drivers/STM32F1xx_HAL_Driver/Src/stm32f1xx_hal_flash_ex.c ****         CLEAR_BIT(FLASH->CR2, FLASH_CR2_MER);
 193:./Drivers/STM32F1xx_HAL_Driver/Src/stm32f1xx_hal_flash_ex.c ****       }
 194:./Drivers/STM32F1xx_HAL_Driver/Src/stm32f1xx_hal_flash_ex.c ****     }
 195:./Drivers/STM32F1xx_HAL_Driver/Src/stm32f1xx_hal_flash_ex.c ****     else if (pEraseInit->Banks == FLASH_BANK_2)
 196:./Drivers/STM32F1xx_HAL_Driver/Src/stm32f1xx_hal_flash_ex.c ****     {
 197:./Drivers/STM32F1xx_HAL_Driver/Src/stm32f1xx_hal_flash_ex.c ****       /* Mass Erase requested for Bank2 */
 198:./Drivers/STM32F1xx_HAL_Driver/Src/stm32f1xx_hal_flash_ex.c ****       /* Wait for last operation to be completed */
 199:./Drivers/STM32F1xx_HAL_Driver/Src/stm32f1xx_hal_flash_ex.c ****       if (FLASH_WaitForLastOperationBank2((uint32_t)FLASH_TIMEOUT_VALUE) == HAL_OK)
 200:./Drivers/STM32F1xx_HAL_Driver/Src/stm32f1xx_hal_flash_ex.c ****       {
 201:./Drivers/STM32F1xx_HAL_Driver/Src/stm32f1xx_hal_flash_ex.c ****         /*Mass erase to be done*/
 202:./Drivers/STM32F1xx_HAL_Driver/Src/stm32f1xx_hal_flash_ex.c ****         FLASH_MassErase(FLASH_BANK_2);
 203:./Drivers/STM32F1xx_HAL_Driver/Src/stm32f1xx_hal_flash_ex.c ****         
 204:./Drivers/STM32F1xx_HAL_Driver/Src/stm32f1xx_hal_flash_ex.c ****         /* Wait for last operation to be completed */
 205:./Drivers/STM32F1xx_HAL_Driver/Src/stm32f1xx_hal_flash_ex.c ****         status = FLASH_WaitForLastOperationBank2((uint32_t)FLASH_TIMEOUT_VALUE);
 206:./Drivers/STM32F1xx_HAL_Driver/Src/stm32f1xx_hal_flash_ex.c ****         
 207:./Drivers/STM32F1xx_HAL_Driver/Src/stm32f1xx_hal_flash_ex.c ****         /* If the erase operation is completed, disable the MER Bit */
 208:./Drivers/STM32F1xx_HAL_Driver/Src/stm32f1xx_hal_flash_ex.c ****         CLEAR_BIT(FLASH->CR2, FLASH_CR2_MER);
 209:./Drivers/STM32F1xx_HAL_Driver/Src/stm32f1xx_hal_flash_ex.c ****       }
 210:./Drivers/STM32F1xx_HAL_Driver/Src/stm32f1xx_hal_flash_ex.c ****     }
 211:./Drivers/STM32F1xx_HAL_Driver/Src/stm32f1xx_hal_flash_ex.c ****     else 
 212:./Drivers/STM32F1xx_HAL_Driver/Src/stm32f1xx_hal_flash_ex.c **** #endif /* FLASH_BANK2_END */
 213:./Drivers/STM32F1xx_HAL_Driver/Src/stm32f1xx_hal_flash_ex.c ****     {
 214:./Drivers/STM32F1xx_HAL_Driver/Src/stm32f1xx_hal_flash_ex.c ****       /* Mass Erase requested for Bank1 */
 215:./Drivers/STM32F1xx_HAL_Driver/Src/stm32f1xx_hal_flash_ex.c ****       /* Wait for last operation to be completed */
 216:./Drivers/STM32F1xx_HAL_Driver/Src/stm32f1xx_hal_flash_ex.c ****       if (FLASH_WaitForLastOperation((uint32_t)FLASH_TIMEOUT_VALUE) == HAL_OK)
  66              		.loc 1 216 11
  67 002c 4CF25030 		movw	r0, #50000
  68 0030 FFF7FEFF 		bl	FLASH_WaitForLastOperation
  69 0034 0346     		mov	r3, r0
  70              		.loc 1 216 10
ARM GAS  C:\Users\ULTIMA~1\AppData\Local\Temp\ccbIrIj9.s 			page 6


  71 0036 002B     		cmp	r3, #0
  72 0038 41D1     		bne	.L5
 217:./Drivers/STM32F1xx_HAL_Driver/Src/stm32f1xx_hal_flash_ex.c ****       {
 218:./Drivers/STM32F1xx_HAL_Driver/Src/stm32f1xx_hal_flash_ex.c ****         /*Mass erase to be done*/
 219:./Drivers/STM32F1xx_HAL_Driver/Src/stm32f1xx_hal_flash_ex.c ****         FLASH_MassErase(FLASH_BANK_1);
  73              		.loc 1 219 9
  74 003a 0120     		movs	r0, #1
  75 003c FFF7FEFF 		bl	FLASH_MassErase
 220:./Drivers/STM32F1xx_HAL_Driver/Src/stm32f1xx_hal_flash_ex.c ****         
 221:./Drivers/STM32F1xx_HAL_Driver/Src/stm32f1xx_hal_flash_ex.c ****         /* Wait for last operation to be completed */
 222:./Drivers/STM32F1xx_HAL_Driver/Src/stm32f1xx_hal_flash_ex.c ****         status = FLASH_WaitForLastOperation((uint32_t)FLASH_TIMEOUT_VALUE);
  76              		.loc 1 222 18
  77 0040 4CF25030 		movw	r0, #50000
  78 0044 FFF7FEFF 		bl	FLASH_WaitForLastOperation
  79 0048 0346     		mov	r3, r0
  80 004a FB73     		strb	r3, [r7, #15]
 223:./Drivers/STM32F1xx_HAL_Driver/Src/stm32f1xx_hal_flash_ex.c ****         
 224:./Drivers/STM32F1xx_HAL_Driver/Src/stm32f1xx_hal_flash_ex.c ****         /* If the erase operation is completed, disable the MER Bit */
 225:./Drivers/STM32F1xx_HAL_Driver/Src/stm32f1xx_hal_flash_ex.c ****         CLEAR_BIT(FLASH->CR, FLASH_CR_MER);
  81              		.loc 1 225 9
  82 004c 214B     		ldr	r3, .L9+4
  83 004e 1B69     		ldr	r3, [r3, #16]
  84 0050 204A     		ldr	r2, .L9+4
  85 0052 23F00403 		bic	r3, r3, #4
  86 0056 1361     		str	r3, [r2, #16]
  87 0058 31E0     		b	.L5
  88              	.L4:
 226:./Drivers/STM32F1xx_HAL_Driver/Src/stm32f1xx_hal_flash_ex.c ****       }
 227:./Drivers/STM32F1xx_HAL_Driver/Src/stm32f1xx_hal_flash_ex.c ****     }
 228:./Drivers/STM32F1xx_HAL_Driver/Src/stm32f1xx_hal_flash_ex.c ****   }
 229:./Drivers/STM32F1xx_HAL_Driver/Src/stm32f1xx_hal_flash_ex.c ****   else
 230:./Drivers/STM32F1xx_HAL_Driver/Src/stm32f1xx_hal_flash_ex.c ****   {
 231:./Drivers/STM32F1xx_HAL_Driver/Src/stm32f1xx_hal_flash_ex.c ****     /* Page Erase is requested */
 232:./Drivers/STM32F1xx_HAL_Driver/Src/stm32f1xx_hal_flash_ex.c ****     /* Check the parameters */
 233:./Drivers/STM32F1xx_HAL_Driver/Src/stm32f1xx_hal_flash_ex.c ****     assert_param(IS_FLASH_PROGRAM_ADDRESS(pEraseInit->PageAddress));
 234:./Drivers/STM32F1xx_HAL_Driver/Src/stm32f1xx_hal_flash_ex.c ****     assert_param(IS_FLASH_NB_PAGES(pEraseInit->PageAddress, pEraseInit->NbPages));
 235:./Drivers/STM32F1xx_HAL_Driver/Src/stm32f1xx_hal_flash_ex.c ****     
 236:./Drivers/STM32F1xx_HAL_Driver/Src/stm32f1xx_hal_flash_ex.c **** #if defined(FLASH_BANK2_END)
 237:./Drivers/STM32F1xx_HAL_Driver/Src/stm32f1xx_hal_flash_ex.c ****     /* Page Erase requested on address located on bank2 */
 238:./Drivers/STM32F1xx_HAL_Driver/Src/stm32f1xx_hal_flash_ex.c ****     if(pEraseInit->PageAddress > FLASH_BANK1_END)
 239:./Drivers/STM32F1xx_HAL_Driver/Src/stm32f1xx_hal_flash_ex.c ****     {   
 240:./Drivers/STM32F1xx_HAL_Driver/Src/stm32f1xx_hal_flash_ex.c ****       /* Wait for last operation to be completed */
 241:./Drivers/STM32F1xx_HAL_Driver/Src/stm32f1xx_hal_flash_ex.c ****       if (FLASH_WaitForLastOperationBank2((uint32_t)FLASH_TIMEOUT_VALUE) == HAL_OK)
 242:./Drivers/STM32F1xx_HAL_Driver/Src/stm32f1xx_hal_flash_ex.c ****       {
 243:./Drivers/STM32F1xx_HAL_Driver/Src/stm32f1xx_hal_flash_ex.c ****         /*Initialization of PageError variable*/
 244:./Drivers/STM32F1xx_HAL_Driver/Src/stm32f1xx_hal_flash_ex.c ****         *PageError = 0xFFFFFFFFU;
 245:./Drivers/STM32F1xx_HAL_Driver/Src/stm32f1xx_hal_flash_ex.c ****         
 246:./Drivers/STM32F1xx_HAL_Driver/Src/stm32f1xx_hal_flash_ex.c ****         /* Erase by page by page to be done*/
 247:./Drivers/STM32F1xx_HAL_Driver/Src/stm32f1xx_hal_flash_ex.c ****         for(address = pEraseInit->PageAddress;
 248:./Drivers/STM32F1xx_HAL_Driver/Src/stm32f1xx_hal_flash_ex.c ****             address < (pEraseInit->PageAddress + (pEraseInit->NbPages)*FLASH_PAGE_SIZE);
 249:./Drivers/STM32F1xx_HAL_Driver/Src/stm32f1xx_hal_flash_ex.c ****             address += FLASH_PAGE_SIZE)
 250:./Drivers/STM32F1xx_HAL_Driver/Src/stm32f1xx_hal_flash_ex.c ****         {
 251:./Drivers/STM32F1xx_HAL_Driver/Src/stm32f1xx_hal_flash_ex.c ****           FLASH_PageErase(address);
 252:./Drivers/STM32F1xx_HAL_Driver/Src/stm32f1xx_hal_flash_ex.c ****           
 253:./Drivers/STM32F1xx_HAL_Driver/Src/stm32f1xx_hal_flash_ex.c ****           /* Wait for last operation to be completed */
 254:./Drivers/STM32F1xx_HAL_Driver/Src/stm32f1xx_hal_flash_ex.c ****           status = FLASH_WaitForLastOperationBank2((uint32_t)FLASH_TIMEOUT_VALUE);
 255:./Drivers/STM32F1xx_HAL_Driver/Src/stm32f1xx_hal_flash_ex.c ****           
ARM GAS  C:\Users\ULTIMA~1\AppData\Local\Temp\ccbIrIj9.s 			page 7


 256:./Drivers/STM32F1xx_HAL_Driver/Src/stm32f1xx_hal_flash_ex.c ****           /* If the erase operation is completed, disable the PER Bit */
 257:./Drivers/STM32F1xx_HAL_Driver/Src/stm32f1xx_hal_flash_ex.c ****           CLEAR_BIT(FLASH->CR2, FLASH_CR2_PER);
 258:./Drivers/STM32F1xx_HAL_Driver/Src/stm32f1xx_hal_flash_ex.c ****           
 259:./Drivers/STM32F1xx_HAL_Driver/Src/stm32f1xx_hal_flash_ex.c ****           if (status != HAL_OK)
 260:./Drivers/STM32F1xx_HAL_Driver/Src/stm32f1xx_hal_flash_ex.c ****           {
 261:./Drivers/STM32F1xx_HAL_Driver/Src/stm32f1xx_hal_flash_ex.c ****             /* In case of error, stop erase procedure and return the faulty address */
 262:./Drivers/STM32F1xx_HAL_Driver/Src/stm32f1xx_hal_flash_ex.c ****             *PageError = address;
 263:./Drivers/STM32F1xx_HAL_Driver/Src/stm32f1xx_hal_flash_ex.c ****             break;
 264:./Drivers/STM32F1xx_HAL_Driver/Src/stm32f1xx_hal_flash_ex.c ****           }
 265:./Drivers/STM32F1xx_HAL_Driver/Src/stm32f1xx_hal_flash_ex.c ****         }
 266:./Drivers/STM32F1xx_HAL_Driver/Src/stm32f1xx_hal_flash_ex.c ****       }
 267:./Drivers/STM32F1xx_HAL_Driver/Src/stm32f1xx_hal_flash_ex.c ****     }
 268:./Drivers/STM32F1xx_HAL_Driver/Src/stm32f1xx_hal_flash_ex.c ****     else
 269:./Drivers/STM32F1xx_HAL_Driver/Src/stm32f1xx_hal_flash_ex.c **** #endif /* FLASH_BANK2_END */
 270:./Drivers/STM32F1xx_HAL_Driver/Src/stm32f1xx_hal_flash_ex.c ****    {
 271:./Drivers/STM32F1xx_HAL_Driver/Src/stm32f1xx_hal_flash_ex.c ****       /* Page Erase requested on address located on bank1 */
 272:./Drivers/STM32F1xx_HAL_Driver/Src/stm32f1xx_hal_flash_ex.c ****       /* Wait for last operation to be completed */
 273:./Drivers/STM32F1xx_HAL_Driver/Src/stm32f1xx_hal_flash_ex.c ****       if (FLASH_WaitForLastOperation((uint32_t)FLASH_TIMEOUT_VALUE) == HAL_OK)
  89              		.loc 1 273 11
  90 005a 4CF25030 		movw	r0, #50000
  91 005e FFF7FEFF 		bl	FLASH_WaitForLastOperation
  92 0062 0346     		mov	r3, r0
  93              		.loc 1 273 10
  94 0064 002B     		cmp	r3, #0
  95 0066 2AD1     		bne	.L5
 274:./Drivers/STM32F1xx_HAL_Driver/Src/stm32f1xx_hal_flash_ex.c ****       {
 275:./Drivers/STM32F1xx_HAL_Driver/Src/stm32f1xx_hal_flash_ex.c ****         /*Initialization of PageError variable*/
 276:./Drivers/STM32F1xx_HAL_Driver/Src/stm32f1xx_hal_flash_ex.c ****         *PageError = 0xFFFFFFFFU;
  96              		.loc 1 276 20
  97 0068 3B68     		ldr	r3, [r7]
  98 006a 4FF0FF32 		mov	r2, #-1
  99 006e 1A60     		str	r2, [r3]
 277:./Drivers/STM32F1xx_HAL_Driver/Src/stm32f1xx_hal_flash_ex.c ****         
 278:./Drivers/STM32F1xx_HAL_Driver/Src/stm32f1xx_hal_flash_ex.c ****         /* Erase page by page to be done*/
 279:./Drivers/STM32F1xx_HAL_Driver/Src/stm32f1xx_hal_flash_ex.c ****         for(address = pEraseInit->PageAddress;
 100              		.loc 1 279 21
 101 0070 7B68     		ldr	r3, [r7, #4]
 102 0072 9B68     		ldr	r3, [r3, #8]
 103 0074 BB60     		str	r3, [r7, #8]
 104              		.loc 1 279 9
 105 0076 19E0     		b	.L6
 106              	.L8:
 280:./Drivers/STM32F1xx_HAL_Driver/Src/stm32f1xx_hal_flash_ex.c ****             address < ((pEraseInit->NbPages * FLASH_PAGE_SIZE) + pEraseInit->PageAddress);
 281:./Drivers/STM32F1xx_HAL_Driver/Src/stm32f1xx_hal_flash_ex.c ****             address += FLASH_PAGE_SIZE)
 282:./Drivers/STM32F1xx_HAL_Driver/Src/stm32f1xx_hal_flash_ex.c ****         {
 283:./Drivers/STM32F1xx_HAL_Driver/Src/stm32f1xx_hal_flash_ex.c ****           FLASH_PageErase(address);
 107              		.loc 1 283 11
 108 0078 B868     		ldr	r0, [r7, #8]
 109 007a FFF7FEFF 		bl	FLASH_PageErase
 284:./Drivers/STM32F1xx_HAL_Driver/Src/stm32f1xx_hal_flash_ex.c ****           
 285:./Drivers/STM32F1xx_HAL_Driver/Src/stm32f1xx_hal_flash_ex.c ****           /* Wait for last operation to be completed */
 286:./Drivers/STM32F1xx_HAL_Driver/Src/stm32f1xx_hal_flash_ex.c ****           status = FLASH_WaitForLastOperation((uint32_t)FLASH_TIMEOUT_VALUE);
 110              		.loc 1 286 20
 111 007e 4CF25030 		movw	r0, #50000
 112 0082 FFF7FEFF 		bl	FLASH_WaitForLastOperation
 113 0086 0346     		mov	r3, r0
 114 0088 FB73     		strb	r3, [r7, #15]
ARM GAS  C:\Users\ULTIMA~1\AppData\Local\Temp\ccbIrIj9.s 			page 8


 287:./Drivers/STM32F1xx_HAL_Driver/Src/stm32f1xx_hal_flash_ex.c ****           
 288:./Drivers/STM32F1xx_HAL_Driver/Src/stm32f1xx_hal_flash_ex.c ****           /* If the erase operation is completed, disable the PER Bit */
 289:./Drivers/STM32F1xx_HAL_Driver/Src/stm32f1xx_hal_flash_ex.c ****           CLEAR_BIT(FLASH->CR, FLASH_CR_PER);
 115              		.loc 1 289 11
 116 008a 124B     		ldr	r3, .L9+4
 117 008c 1B69     		ldr	r3, [r3, #16]
 118 008e 114A     		ldr	r2, .L9+4
 119 0090 23F00203 		bic	r3, r3, #2
 120 0094 1361     		str	r3, [r2, #16]
 290:./Drivers/STM32F1xx_HAL_Driver/Src/stm32f1xx_hal_flash_ex.c ****           
 291:./Drivers/STM32F1xx_HAL_Driver/Src/stm32f1xx_hal_flash_ex.c ****           if (status != HAL_OK)
 121              		.loc 1 291 14
 122 0096 FB7B     		ldrb	r3, [r7, #15]	@ zero_extendqisi2
 123 0098 002B     		cmp	r3, #0
 124 009a 03D0     		beq	.L7
 292:./Drivers/STM32F1xx_HAL_Driver/Src/stm32f1xx_hal_flash_ex.c ****           {
 293:./Drivers/STM32F1xx_HAL_Driver/Src/stm32f1xx_hal_flash_ex.c ****             /* In case of error, stop erase procedure and return the faulty address */
 294:./Drivers/STM32F1xx_HAL_Driver/Src/stm32f1xx_hal_flash_ex.c ****             *PageError = address;
 125              		.loc 1 294 24
 126 009c 3B68     		ldr	r3, [r7]
 127 009e BA68     		ldr	r2, [r7, #8]
 128 00a0 1A60     		str	r2, [r3]
 295:./Drivers/STM32F1xx_HAL_Driver/Src/stm32f1xx_hal_flash_ex.c ****             break;
 129              		.loc 1 295 13
 130 00a2 0CE0     		b	.L5
 131              	.L7:
 281:./Drivers/STM32F1xx_HAL_Driver/Src/stm32f1xx_hal_flash_ex.c ****         {
 132              		.loc 1 281 21
 133 00a4 BB68     		ldr	r3, [r7, #8]
 134 00a6 03F58063 		add	r3, r3, #1024
 135 00aa BB60     		str	r3, [r7, #8]
 136              	.L6:
 280:./Drivers/STM32F1xx_HAL_Driver/Src/stm32f1xx_hal_flash_ex.c ****             address += FLASH_PAGE_SIZE)
 137              		.loc 1 280 35 discriminator 1
 138 00ac 7B68     		ldr	r3, [r7, #4]
 139 00ae DB68     		ldr	r3, [r3, #12]
 280:./Drivers/STM32F1xx_HAL_Driver/Src/stm32f1xx_hal_flash_ex.c ****             address += FLASH_PAGE_SIZE)
 140              		.loc 1 280 45 discriminator 1
 141 00b0 9A02     		lsls	r2, r3, #10
 280:./Drivers/STM32F1xx_HAL_Driver/Src/stm32f1xx_hal_flash_ex.c ****             address += FLASH_PAGE_SIZE)
 142              		.loc 1 280 76 discriminator 1
 143 00b2 7B68     		ldr	r3, [r7, #4]
 144 00b4 9B68     		ldr	r3, [r3, #8]
 280:./Drivers/STM32F1xx_HAL_Driver/Src/stm32f1xx_hal_flash_ex.c ****             address += FLASH_PAGE_SIZE)
 145              		.loc 1 280 64 discriminator 1
 146 00b6 1344     		add	r3, r3, r2
 279:./Drivers/STM32F1xx_HAL_Driver/Src/stm32f1xx_hal_flash_ex.c ****             address < ((pEraseInit->NbPages * FLASH_PAGE_SIZE) + pEraseInit->PageAddress);
 147              		.loc 1 279 9 discriminator 1
 148 00b8 BA68     		ldr	r2, [r7, #8]
 149 00ba 9A42     		cmp	r2, r3
 150 00bc DCD3     		bcc	.L8
 151              	.L5:
 296:./Drivers/STM32F1xx_HAL_Driver/Src/stm32f1xx_hal_flash_ex.c ****           }
 297:./Drivers/STM32F1xx_HAL_Driver/Src/stm32f1xx_hal_flash_ex.c ****         }
 298:./Drivers/STM32F1xx_HAL_Driver/Src/stm32f1xx_hal_flash_ex.c ****       }
 299:./Drivers/STM32F1xx_HAL_Driver/Src/stm32f1xx_hal_flash_ex.c ****     }
 300:./Drivers/STM32F1xx_HAL_Driver/Src/stm32f1xx_hal_flash_ex.c ****   }
ARM GAS  C:\Users\ULTIMA~1\AppData\Local\Temp\ccbIrIj9.s 			page 9


 301:./Drivers/STM32F1xx_HAL_Driver/Src/stm32f1xx_hal_flash_ex.c **** 
 302:./Drivers/STM32F1xx_HAL_Driver/Src/stm32f1xx_hal_flash_ex.c ****   /* Process Unlocked */
 303:./Drivers/STM32F1xx_HAL_Driver/Src/stm32f1xx_hal_flash_ex.c ****   __HAL_UNLOCK(&pFlash);
 152              		.loc 1 303 3
 153 00be 044B     		ldr	r3, .L9
 154 00c0 0022     		movs	r2, #0
 155 00c2 1A76     		strb	r2, [r3, #24]
 304:./Drivers/STM32F1xx_HAL_Driver/Src/stm32f1xx_hal_flash_ex.c **** 
 305:./Drivers/STM32F1xx_HAL_Driver/Src/stm32f1xx_hal_flash_ex.c ****   return status;
 156              		.loc 1 305 10
 157 00c4 FB7B     		ldrb	r3, [r7, #15]	@ zero_extendqisi2
 158              	.L3:
 306:./Drivers/STM32F1xx_HAL_Driver/Src/stm32f1xx_hal_flash_ex.c **** }
 159              		.loc 1 306 1
 160 00c6 1846     		mov	r0, r3
 161 00c8 1037     		adds	r7, r7, #16
 162              		.cfi_def_cfa_offset 8
 163 00ca BD46     		mov	sp, r7
 164              		.cfi_def_cfa_register 13
 165              		@ sp needed
 166 00cc 80BD     		pop	{r7, pc}
 167              	.L10:
 168 00ce 00BF     		.align	2
 169              	.L9:
 170 00d0 00000000 		.word	pFlash
 171 00d4 00200240 		.word	1073881088
 172              		.cfi_endproc
 173              	.LFE65:
 175              		.section	.text.HAL_FLASHEx_Erase_IT,"ax",%progbits
 176              		.align	1
 177              		.global	HAL_FLASHEx_Erase_IT
 178              		.syntax unified
 179              		.thumb
 180              		.thumb_func
 182              	HAL_FLASHEx_Erase_IT:
 183              	.LFB66:
 307:./Drivers/STM32F1xx_HAL_Driver/Src/stm32f1xx_hal_flash_ex.c **** 
 308:./Drivers/STM32F1xx_HAL_Driver/Src/stm32f1xx_hal_flash_ex.c **** /**
 309:./Drivers/STM32F1xx_HAL_Driver/Src/stm32f1xx_hal_flash_ex.c ****   * @brief  Perform a mass erase or erase the specified FLASH memory pages with interrupt enabled
 310:./Drivers/STM32F1xx_HAL_Driver/Src/stm32f1xx_hal_flash_ex.c ****   * @note   To correctly run this function, the @ref HAL_FLASH_Unlock() function
 311:./Drivers/STM32F1xx_HAL_Driver/Src/stm32f1xx_hal_flash_ex.c ****   *         must be called before.
 312:./Drivers/STM32F1xx_HAL_Driver/Src/stm32f1xx_hal_flash_ex.c ****   *         Call the @ref HAL_FLASH_Lock() to disable the flash memory access 
 313:./Drivers/STM32F1xx_HAL_Driver/Src/stm32f1xx_hal_flash_ex.c ****   *         (recommended to protect the FLASH memory against possible unwanted operation)
 314:./Drivers/STM32F1xx_HAL_Driver/Src/stm32f1xx_hal_flash_ex.c ****   * @param  pEraseInit pointer to an FLASH_EraseInitTypeDef structure that
 315:./Drivers/STM32F1xx_HAL_Driver/Src/stm32f1xx_hal_flash_ex.c ****   *         contains the configuration information for the erasing.
 316:./Drivers/STM32F1xx_HAL_Driver/Src/stm32f1xx_hal_flash_ex.c ****   *
 317:./Drivers/STM32F1xx_HAL_Driver/Src/stm32f1xx_hal_flash_ex.c ****   * @retval HAL_StatusTypeDef HAL Status
 318:./Drivers/STM32F1xx_HAL_Driver/Src/stm32f1xx_hal_flash_ex.c ****   */
 319:./Drivers/STM32F1xx_HAL_Driver/Src/stm32f1xx_hal_flash_ex.c **** HAL_StatusTypeDef HAL_FLASHEx_Erase_IT(FLASH_EraseInitTypeDef *pEraseInit)
 320:./Drivers/STM32F1xx_HAL_Driver/Src/stm32f1xx_hal_flash_ex.c **** {
 184              		.loc 1 320 1
 185              		.cfi_startproc
 186              		@ args = 0, pretend = 0, frame = 16
 187              		@ frame_needed = 1, uses_anonymous_args = 0
 188 0000 80B5     		push	{r7, lr}
 189              		.cfi_def_cfa_offset 8
 190              		.cfi_offset 7, -8
ARM GAS  C:\Users\ULTIMA~1\AppData\Local\Temp\ccbIrIj9.s 			page 10


 191              		.cfi_offset 14, -4
 192 0002 84B0     		sub	sp, sp, #16
 193              		.cfi_def_cfa_offset 24
 194 0004 00AF     		add	r7, sp, #0
 195              		.cfi_def_cfa_register 7
 196 0006 7860     		str	r0, [r7, #4]
 321:./Drivers/STM32F1xx_HAL_Driver/Src/stm32f1xx_hal_flash_ex.c ****   HAL_StatusTypeDef status = HAL_OK;
 197              		.loc 1 321 21
 198 0008 0023     		movs	r3, #0
 199 000a FB73     		strb	r3, [r7, #15]
 322:./Drivers/STM32F1xx_HAL_Driver/Src/stm32f1xx_hal_flash_ex.c **** 
 323:./Drivers/STM32F1xx_HAL_Driver/Src/stm32f1xx_hal_flash_ex.c ****   /* Process Locked */
 324:./Drivers/STM32F1xx_HAL_Driver/Src/stm32f1xx_hal_flash_ex.c ****   __HAL_LOCK(&pFlash);
 200              		.loc 1 324 3
 201 000c 1B4B     		ldr	r3, .L17
 202 000e 1B7E     		ldrb	r3, [r3, #24]	@ zero_extendqisi2
 203 0010 012B     		cmp	r3, #1
 204 0012 01D1     		bne	.L12
 205              		.loc 1 324 3 is_stmt 0 discriminator 1
 206 0014 0223     		movs	r3, #2
 207 0016 2DE0     		b	.L13
 208              	.L12:
 209              		.loc 1 324 3 discriminator 2
 210 0018 184B     		ldr	r3, .L17
 211 001a 0122     		movs	r2, #1
 212 001c 1A76     		strb	r2, [r3, #24]
 325:./Drivers/STM32F1xx_HAL_Driver/Src/stm32f1xx_hal_flash_ex.c **** 
 326:./Drivers/STM32F1xx_HAL_Driver/Src/stm32f1xx_hal_flash_ex.c ****   /* If procedure already ongoing, reject the next one */
 327:./Drivers/STM32F1xx_HAL_Driver/Src/stm32f1xx_hal_flash_ex.c ****   if (pFlash.ProcedureOnGoing != FLASH_PROC_NONE)
 213              		.loc 1 327 13 is_stmt 1 discriminator 2
 214 001e 174B     		ldr	r3, .L17
 215 0020 1B78     		ldrb	r3, [r3]
 216 0022 DBB2     		uxtb	r3, r3
 217              		.loc 1 327 6 discriminator 2
 218 0024 002B     		cmp	r3, #0
 219 0026 01D0     		beq	.L14
 328:./Drivers/STM32F1xx_HAL_Driver/Src/stm32f1xx_hal_flash_ex.c ****   {
 329:./Drivers/STM32F1xx_HAL_Driver/Src/stm32f1xx_hal_flash_ex.c ****     return HAL_ERROR;
 220              		.loc 1 329 12
 221 0028 0123     		movs	r3, #1
 222 002a 23E0     		b	.L13
 223              	.L14:
 330:./Drivers/STM32F1xx_HAL_Driver/Src/stm32f1xx_hal_flash_ex.c ****   }
 331:./Drivers/STM32F1xx_HAL_Driver/Src/stm32f1xx_hal_flash_ex.c ****   
 332:./Drivers/STM32F1xx_HAL_Driver/Src/stm32f1xx_hal_flash_ex.c ****   /* Check the parameters */
 333:./Drivers/STM32F1xx_HAL_Driver/Src/stm32f1xx_hal_flash_ex.c ****   assert_param(IS_FLASH_TYPEERASE(pEraseInit->TypeErase));
 334:./Drivers/STM32F1xx_HAL_Driver/Src/stm32f1xx_hal_flash_ex.c **** 
 335:./Drivers/STM32F1xx_HAL_Driver/Src/stm32f1xx_hal_flash_ex.c ****   /* Enable End of FLASH Operation and Error source interrupts */
 336:./Drivers/STM32F1xx_HAL_Driver/Src/stm32f1xx_hal_flash_ex.c ****   __HAL_FLASH_ENABLE_IT(FLASH_IT_EOP | FLASH_IT_ERR);
 224              		.loc 1 336 3
 225 002c 144B     		ldr	r3, .L17+4
 226 002e 1B69     		ldr	r3, [r3, #16]
 227 0030 134A     		ldr	r2, .L17+4
 228 0032 43F4A053 		orr	r3, r3, #5120
 229 0036 1361     		str	r3, [r2, #16]
 337:./Drivers/STM32F1xx_HAL_Driver/Src/stm32f1xx_hal_flash_ex.c **** 
 338:./Drivers/STM32F1xx_HAL_Driver/Src/stm32f1xx_hal_flash_ex.c **** #if defined(FLASH_BANK2_END)
ARM GAS  C:\Users\ULTIMA~1\AppData\Local\Temp\ccbIrIj9.s 			page 11


 339:./Drivers/STM32F1xx_HAL_Driver/Src/stm32f1xx_hal_flash_ex.c ****   /* Enable End of FLASH Operation and Error source interrupts */
 340:./Drivers/STM32F1xx_HAL_Driver/Src/stm32f1xx_hal_flash_ex.c ****   __HAL_FLASH_ENABLE_IT(FLASH_IT_EOP_BANK2 | FLASH_IT_ERR_BANK2);
 341:./Drivers/STM32F1xx_HAL_Driver/Src/stm32f1xx_hal_flash_ex.c ****   
 342:./Drivers/STM32F1xx_HAL_Driver/Src/stm32f1xx_hal_flash_ex.c **** #endif
 343:./Drivers/STM32F1xx_HAL_Driver/Src/stm32f1xx_hal_flash_ex.c ****   if (pEraseInit->TypeErase == FLASH_TYPEERASE_MASSERASE)
 230              		.loc 1 343 17
 231 0038 7B68     		ldr	r3, [r7, #4]
 232 003a 1B68     		ldr	r3, [r3]
 233              		.loc 1 343 6
 234 003c 022B     		cmp	r3, #2
 235 003e 08D1     		bne	.L15
 344:./Drivers/STM32F1xx_HAL_Driver/Src/stm32f1xx_hal_flash_ex.c ****   {
 345:./Drivers/STM32F1xx_HAL_Driver/Src/stm32f1xx_hal_flash_ex.c ****     /*Mass erase to be done*/
 346:./Drivers/STM32F1xx_HAL_Driver/Src/stm32f1xx_hal_flash_ex.c ****     pFlash.ProcedureOnGoing = FLASH_PROC_MASSERASE;
 236              		.loc 1 346 29
 237 0040 0E4B     		ldr	r3, .L17
 238 0042 0222     		movs	r2, #2
 239 0044 1A70     		strb	r2, [r3]
 347:./Drivers/STM32F1xx_HAL_Driver/Src/stm32f1xx_hal_flash_ex.c ****         FLASH_MassErase(pEraseInit->Banks);
 240              		.loc 1 347 9
 241 0046 7B68     		ldr	r3, [r7, #4]
 242 0048 5B68     		ldr	r3, [r3, #4]
 243 004a 1846     		mov	r0, r3
 244 004c FFF7FEFF 		bl	FLASH_MassErase
 245 0050 0FE0     		b	.L16
 246              	.L15:
 348:./Drivers/STM32F1xx_HAL_Driver/Src/stm32f1xx_hal_flash_ex.c ****   }
 349:./Drivers/STM32F1xx_HAL_Driver/Src/stm32f1xx_hal_flash_ex.c ****   else
 350:./Drivers/STM32F1xx_HAL_Driver/Src/stm32f1xx_hal_flash_ex.c ****   {
 351:./Drivers/STM32F1xx_HAL_Driver/Src/stm32f1xx_hal_flash_ex.c ****     /* Erase by page to be done*/
 352:./Drivers/STM32F1xx_HAL_Driver/Src/stm32f1xx_hal_flash_ex.c **** 
 353:./Drivers/STM32F1xx_HAL_Driver/Src/stm32f1xx_hal_flash_ex.c ****     /* Check the parameters */
 354:./Drivers/STM32F1xx_HAL_Driver/Src/stm32f1xx_hal_flash_ex.c ****     assert_param(IS_FLASH_PROGRAM_ADDRESS(pEraseInit->PageAddress));
 355:./Drivers/STM32F1xx_HAL_Driver/Src/stm32f1xx_hal_flash_ex.c ****     assert_param(IS_FLASH_NB_PAGES(pEraseInit->PageAddress, pEraseInit->NbPages));
 356:./Drivers/STM32F1xx_HAL_Driver/Src/stm32f1xx_hal_flash_ex.c **** 
 357:./Drivers/STM32F1xx_HAL_Driver/Src/stm32f1xx_hal_flash_ex.c ****     pFlash.ProcedureOnGoing = FLASH_PROC_PAGEERASE;
 247              		.loc 1 357 29
 248 0052 0A4B     		ldr	r3, .L17
 249 0054 0122     		movs	r2, #1
 250 0056 1A70     		strb	r2, [r3]
 358:./Drivers/STM32F1xx_HAL_Driver/Src/stm32f1xx_hal_flash_ex.c ****     pFlash.DataRemaining = pEraseInit->NbPages;
 251              		.loc 1 358 38
 252 0058 7B68     		ldr	r3, [r7, #4]
 253 005a DB68     		ldr	r3, [r3, #12]
 254              		.loc 1 358 26
 255 005c 074A     		ldr	r2, .L17
 256 005e 5360     		str	r3, [r2, #4]
 359:./Drivers/STM32F1xx_HAL_Driver/Src/stm32f1xx_hal_flash_ex.c ****     pFlash.Address = pEraseInit->PageAddress;
 257              		.loc 1 359 32
 258 0060 7B68     		ldr	r3, [r7, #4]
 259 0062 9B68     		ldr	r3, [r3, #8]
 260              		.loc 1 359 20
 261 0064 054A     		ldr	r2, .L17
 262 0066 9360     		str	r3, [r2, #8]
 360:./Drivers/STM32F1xx_HAL_Driver/Src/stm32f1xx_hal_flash_ex.c **** 
 361:./Drivers/STM32F1xx_HAL_Driver/Src/stm32f1xx_hal_flash_ex.c ****     /*Erase 1st page and wait for IT*/
 362:./Drivers/STM32F1xx_HAL_Driver/Src/stm32f1xx_hal_flash_ex.c ****     FLASH_PageErase(pEraseInit->PageAddress);
ARM GAS  C:\Users\ULTIMA~1\AppData\Local\Temp\ccbIrIj9.s 			page 12


 263              		.loc 1 362 5
 264 0068 7B68     		ldr	r3, [r7, #4]
 265 006a 9B68     		ldr	r3, [r3, #8]
 266 006c 1846     		mov	r0, r3
 267 006e FFF7FEFF 		bl	FLASH_PageErase
 268              	.L16:
 363:./Drivers/STM32F1xx_HAL_Driver/Src/stm32f1xx_hal_flash_ex.c ****   }
 364:./Drivers/STM32F1xx_HAL_Driver/Src/stm32f1xx_hal_flash_ex.c **** 
 365:./Drivers/STM32F1xx_HAL_Driver/Src/stm32f1xx_hal_flash_ex.c ****   return status;
 269              		.loc 1 365 10
 270 0072 FB7B     		ldrb	r3, [r7, #15]	@ zero_extendqisi2
 271              	.L13:
 366:./Drivers/STM32F1xx_HAL_Driver/Src/stm32f1xx_hal_flash_ex.c **** }
 272              		.loc 1 366 1
 273 0074 1846     		mov	r0, r3
 274 0076 1037     		adds	r7, r7, #16
 275              		.cfi_def_cfa_offset 8
 276 0078 BD46     		mov	sp, r7
 277              		.cfi_def_cfa_register 13
 278              		@ sp needed
 279 007a 80BD     		pop	{r7, pc}
 280              	.L18:
 281              		.align	2
 282              	.L17:
 283 007c 00000000 		.word	pFlash
 284 0080 00200240 		.word	1073881088
 285              		.cfi_endproc
 286              	.LFE66:
 288              		.section	.text.HAL_FLASHEx_OBErase,"ax",%progbits
 289              		.align	1
 290              		.global	HAL_FLASHEx_OBErase
 291              		.syntax unified
 292              		.thumb
 293              		.thumb_func
 295              	HAL_FLASHEx_OBErase:
 296              	.LFB67:
 367:./Drivers/STM32F1xx_HAL_Driver/Src/stm32f1xx_hal_flash_ex.c **** 
 368:./Drivers/STM32F1xx_HAL_Driver/Src/stm32f1xx_hal_flash_ex.c **** /**
 369:./Drivers/STM32F1xx_HAL_Driver/Src/stm32f1xx_hal_flash_ex.c ****   * @}
 370:./Drivers/STM32F1xx_HAL_Driver/Src/stm32f1xx_hal_flash_ex.c ****   */
 371:./Drivers/STM32F1xx_HAL_Driver/Src/stm32f1xx_hal_flash_ex.c **** 
 372:./Drivers/STM32F1xx_HAL_Driver/Src/stm32f1xx_hal_flash_ex.c **** /** @defgroup FLASHEx_Exported_Functions_Group2 Option Bytes Programming functions
 373:./Drivers/STM32F1xx_HAL_Driver/Src/stm32f1xx_hal_flash_ex.c ****  *  @brief   Option Bytes Programming functions
 374:./Drivers/STM32F1xx_HAL_Driver/Src/stm32f1xx_hal_flash_ex.c ****   *
 375:./Drivers/STM32F1xx_HAL_Driver/Src/stm32f1xx_hal_flash_ex.c **** @verbatim   
 376:./Drivers/STM32F1xx_HAL_Driver/Src/stm32f1xx_hal_flash_ex.c ****   ==============================================================================
 377:./Drivers/STM32F1xx_HAL_Driver/Src/stm32f1xx_hal_flash_ex.c ****                 ##### Option Bytes Programming functions ##### 
 378:./Drivers/STM32F1xx_HAL_Driver/Src/stm32f1xx_hal_flash_ex.c ****   ==============================================================================  
 379:./Drivers/STM32F1xx_HAL_Driver/Src/stm32f1xx_hal_flash_ex.c ****     [..]
 380:./Drivers/STM32F1xx_HAL_Driver/Src/stm32f1xx_hal_flash_ex.c ****     This subsection provides a set of functions allowing to control the FLASH 
 381:./Drivers/STM32F1xx_HAL_Driver/Src/stm32f1xx_hal_flash_ex.c ****     option bytes operations.
 382:./Drivers/STM32F1xx_HAL_Driver/Src/stm32f1xx_hal_flash_ex.c **** 
 383:./Drivers/STM32F1xx_HAL_Driver/Src/stm32f1xx_hal_flash_ex.c **** @endverbatim
 384:./Drivers/STM32F1xx_HAL_Driver/Src/stm32f1xx_hal_flash_ex.c ****   * @{
 385:./Drivers/STM32F1xx_HAL_Driver/Src/stm32f1xx_hal_flash_ex.c ****   */
 386:./Drivers/STM32F1xx_HAL_Driver/Src/stm32f1xx_hal_flash_ex.c **** 
 387:./Drivers/STM32F1xx_HAL_Driver/Src/stm32f1xx_hal_flash_ex.c **** /**
ARM GAS  C:\Users\ULTIMA~1\AppData\Local\Temp\ccbIrIj9.s 			page 13


 388:./Drivers/STM32F1xx_HAL_Driver/Src/stm32f1xx_hal_flash_ex.c ****   * @brief  Erases the FLASH option bytes.
 389:./Drivers/STM32F1xx_HAL_Driver/Src/stm32f1xx_hal_flash_ex.c ****   * @note   This functions erases all option bytes except the Read protection (RDP).
 390:./Drivers/STM32F1xx_HAL_Driver/Src/stm32f1xx_hal_flash_ex.c ****   *         The function @ref HAL_FLASH_Unlock() should be called before to unlock the FLASH interf
 391:./Drivers/STM32F1xx_HAL_Driver/Src/stm32f1xx_hal_flash_ex.c ****   *         The function @ref HAL_FLASH_OB_Unlock() should be called before to unlock the options b
 392:./Drivers/STM32F1xx_HAL_Driver/Src/stm32f1xx_hal_flash_ex.c ****   *         The function @ref HAL_FLASH_OB_Launch() should be called after to force the reload of t
 393:./Drivers/STM32F1xx_HAL_Driver/Src/stm32f1xx_hal_flash_ex.c ****   *         (system reset will occur)
 394:./Drivers/STM32F1xx_HAL_Driver/Src/stm32f1xx_hal_flash_ex.c ****   * @retval HAL status
 395:./Drivers/STM32F1xx_HAL_Driver/Src/stm32f1xx_hal_flash_ex.c ****   */
 396:./Drivers/STM32F1xx_HAL_Driver/Src/stm32f1xx_hal_flash_ex.c **** 
 397:./Drivers/STM32F1xx_HAL_Driver/Src/stm32f1xx_hal_flash_ex.c **** HAL_StatusTypeDef HAL_FLASHEx_OBErase(void)
 398:./Drivers/STM32F1xx_HAL_Driver/Src/stm32f1xx_hal_flash_ex.c **** {
 297              		.loc 1 398 1
 298              		.cfi_startproc
 299              		@ args = 0, pretend = 0, frame = 8
 300              		@ frame_needed = 1, uses_anonymous_args = 0
 301 0000 80B5     		push	{r7, lr}
 302              		.cfi_def_cfa_offset 8
 303              		.cfi_offset 7, -8
 304              		.cfi_offset 14, -4
 305 0002 82B0     		sub	sp, sp, #8
 306              		.cfi_def_cfa_offset 16
 307 0004 00AF     		add	r7, sp, #0
 308              		.cfi_def_cfa_register 7
 399:./Drivers/STM32F1xx_HAL_Driver/Src/stm32f1xx_hal_flash_ex.c ****   uint8_t rdptmp = OB_RDP_LEVEL_0;
 309              		.loc 1 399 11
 310 0006 A523     		movs	r3, #165
 311 0008 BB71     		strb	r3, [r7, #6]
 400:./Drivers/STM32F1xx_HAL_Driver/Src/stm32f1xx_hal_flash_ex.c ****   HAL_StatusTypeDef status = HAL_ERROR;
 312              		.loc 1 400 21
 313 000a 0123     		movs	r3, #1
 314 000c FB71     		strb	r3, [r7, #7]
 401:./Drivers/STM32F1xx_HAL_Driver/Src/stm32f1xx_hal_flash_ex.c **** 
 402:./Drivers/STM32F1xx_HAL_Driver/Src/stm32f1xx_hal_flash_ex.c ****   /* Get the actual read protection Option Byte value */
 403:./Drivers/STM32F1xx_HAL_Driver/Src/stm32f1xx_hal_flash_ex.c ****   rdptmp = FLASH_OB_GetRDP();
 315              		.loc 1 403 12
 316 000e FFF7FEFF 		bl	FLASH_OB_GetRDP
 317 0012 0346     		mov	r3, r0
 318              		.loc 1 403 10
 319 0014 BB71     		strb	r3, [r7, #6]
 404:./Drivers/STM32F1xx_HAL_Driver/Src/stm32f1xx_hal_flash_ex.c **** 
 405:./Drivers/STM32F1xx_HAL_Driver/Src/stm32f1xx_hal_flash_ex.c ****   /* Wait for last operation to be completed */
 406:./Drivers/STM32F1xx_HAL_Driver/Src/stm32f1xx_hal_flash_ex.c ****   status = FLASH_WaitForLastOperation((uint32_t)FLASH_TIMEOUT_VALUE);
 320              		.loc 1 406 12
 321 0016 4CF25030 		movw	r0, #50000
 322 001a FFF7FEFF 		bl	FLASH_WaitForLastOperation
 323 001e 0346     		mov	r3, r0
 324 0020 FB71     		strb	r3, [r7, #7]
 407:./Drivers/STM32F1xx_HAL_Driver/Src/stm32f1xx_hal_flash_ex.c **** 
 408:./Drivers/STM32F1xx_HAL_Driver/Src/stm32f1xx_hal_flash_ex.c ****   if(status == HAL_OK)
 325              		.loc 1 408 5
 326 0022 FB79     		ldrb	r3, [r7, #7]	@ zero_extendqisi2
 327 0024 002B     		cmp	r3, #0
 328 0026 23D1     		bne	.L20
 409:./Drivers/STM32F1xx_HAL_Driver/Src/stm32f1xx_hal_flash_ex.c ****   {
 410:./Drivers/STM32F1xx_HAL_Driver/Src/stm32f1xx_hal_flash_ex.c ****     /* Clean the error context */
 411:./Drivers/STM32F1xx_HAL_Driver/Src/stm32f1xx_hal_flash_ex.c ****     pFlash.ErrorCode = HAL_FLASH_ERROR_NONE;
 329              		.loc 1 411 22
ARM GAS  C:\Users\ULTIMA~1\AppData\Local\Temp\ccbIrIj9.s 			page 14


 330 0028 144B     		ldr	r3, .L22
 331 002a 0022     		movs	r2, #0
 332 002c DA61     		str	r2, [r3, #28]
 412:./Drivers/STM32F1xx_HAL_Driver/Src/stm32f1xx_hal_flash_ex.c **** 
 413:./Drivers/STM32F1xx_HAL_Driver/Src/stm32f1xx_hal_flash_ex.c ****     /* If the previous operation is completed, proceed to erase the option bytes */
 414:./Drivers/STM32F1xx_HAL_Driver/Src/stm32f1xx_hal_flash_ex.c ****     SET_BIT(FLASH->CR, FLASH_CR_OPTER);
 333              		.loc 1 414 5
 334 002e 144B     		ldr	r3, .L22+4
 335 0030 1B69     		ldr	r3, [r3, #16]
 336 0032 134A     		ldr	r2, .L22+4
 337 0034 43F02003 		orr	r3, r3, #32
 338 0038 1361     		str	r3, [r2, #16]
 415:./Drivers/STM32F1xx_HAL_Driver/Src/stm32f1xx_hal_flash_ex.c ****     SET_BIT(FLASH->CR, FLASH_CR_STRT);
 339              		.loc 1 415 5
 340 003a 114B     		ldr	r3, .L22+4
 341 003c 1B69     		ldr	r3, [r3, #16]
 342 003e 104A     		ldr	r2, .L22+4
 343 0040 43F04003 		orr	r3, r3, #64
 344 0044 1361     		str	r3, [r2, #16]
 416:./Drivers/STM32F1xx_HAL_Driver/Src/stm32f1xx_hal_flash_ex.c **** 
 417:./Drivers/STM32F1xx_HAL_Driver/Src/stm32f1xx_hal_flash_ex.c ****     /* Wait for last operation to be completed */
 418:./Drivers/STM32F1xx_HAL_Driver/Src/stm32f1xx_hal_flash_ex.c ****     status = FLASH_WaitForLastOperation((uint32_t)FLASH_TIMEOUT_VALUE);
 345              		.loc 1 418 14
 346 0046 4CF25030 		movw	r0, #50000
 347 004a FFF7FEFF 		bl	FLASH_WaitForLastOperation
 348 004e 0346     		mov	r3, r0
 349 0050 FB71     		strb	r3, [r7, #7]
 419:./Drivers/STM32F1xx_HAL_Driver/Src/stm32f1xx_hal_flash_ex.c **** 
 420:./Drivers/STM32F1xx_HAL_Driver/Src/stm32f1xx_hal_flash_ex.c ****     /* If the erase operation is completed, disable the OPTER Bit */
 421:./Drivers/STM32F1xx_HAL_Driver/Src/stm32f1xx_hal_flash_ex.c ****     CLEAR_BIT(FLASH->CR, FLASH_CR_OPTER);
 350              		.loc 1 421 5
 351 0052 0B4B     		ldr	r3, .L22+4
 352 0054 1B69     		ldr	r3, [r3, #16]
 353 0056 0A4A     		ldr	r2, .L22+4
 354 0058 23F02003 		bic	r3, r3, #32
 355 005c 1361     		str	r3, [r2, #16]
 422:./Drivers/STM32F1xx_HAL_Driver/Src/stm32f1xx_hal_flash_ex.c **** 
 423:./Drivers/STM32F1xx_HAL_Driver/Src/stm32f1xx_hal_flash_ex.c ****     if(status == HAL_OK)
 356              		.loc 1 423 7
 357 005e FB79     		ldrb	r3, [r7, #7]	@ zero_extendqisi2
 358 0060 002B     		cmp	r3, #0
 359 0062 05D1     		bne	.L20
 424:./Drivers/STM32F1xx_HAL_Driver/Src/stm32f1xx_hal_flash_ex.c ****     {
 425:./Drivers/STM32F1xx_HAL_Driver/Src/stm32f1xx_hal_flash_ex.c ****       /* Restore the last read protection Option Byte value */
 426:./Drivers/STM32F1xx_HAL_Driver/Src/stm32f1xx_hal_flash_ex.c ****       status = FLASH_OB_RDP_LevelConfig(rdptmp);
 360              		.loc 1 426 16
 361 0064 BB79     		ldrb	r3, [r7, #6]	@ zero_extendqisi2
 362 0066 1846     		mov	r0, r3
 363 0068 FFF7FEFF 		bl	FLASH_OB_RDP_LevelConfig
 364 006c 0346     		mov	r3, r0
 365 006e FB71     		strb	r3, [r7, #7]
 366              	.L20:
 427:./Drivers/STM32F1xx_HAL_Driver/Src/stm32f1xx_hal_flash_ex.c ****     }
 428:./Drivers/STM32F1xx_HAL_Driver/Src/stm32f1xx_hal_flash_ex.c ****   }
 429:./Drivers/STM32F1xx_HAL_Driver/Src/stm32f1xx_hal_flash_ex.c **** 
 430:./Drivers/STM32F1xx_HAL_Driver/Src/stm32f1xx_hal_flash_ex.c ****   /* Return the erase status */
 431:./Drivers/STM32F1xx_HAL_Driver/Src/stm32f1xx_hal_flash_ex.c ****   return status;
ARM GAS  C:\Users\ULTIMA~1\AppData\Local\Temp\ccbIrIj9.s 			page 15


 367              		.loc 1 431 10
 368 0070 FB79     		ldrb	r3, [r7, #7]	@ zero_extendqisi2
 432:./Drivers/STM32F1xx_HAL_Driver/Src/stm32f1xx_hal_flash_ex.c **** }
 369              		.loc 1 432 1
 370 0072 1846     		mov	r0, r3
 371 0074 0837     		adds	r7, r7, #8
 372              		.cfi_def_cfa_offset 8
 373 0076 BD46     		mov	sp, r7
 374              		.cfi_def_cfa_register 13
 375              		@ sp needed
 376 0078 80BD     		pop	{r7, pc}
 377              	.L23:
 378 007a 00BF     		.align	2
 379              	.L22:
 380 007c 00000000 		.word	pFlash
 381 0080 00200240 		.word	1073881088
 382              		.cfi_endproc
 383              	.LFE67:
 385              		.section	.text.HAL_FLASHEx_OBProgram,"ax",%progbits
 386              		.align	1
 387              		.global	HAL_FLASHEx_OBProgram
 388              		.syntax unified
 389              		.thumb
 390              		.thumb_func
 392              	HAL_FLASHEx_OBProgram:
 393              	.LFB68:
 433:./Drivers/STM32F1xx_HAL_Driver/Src/stm32f1xx_hal_flash_ex.c **** 
 434:./Drivers/STM32F1xx_HAL_Driver/Src/stm32f1xx_hal_flash_ex.c **** /**
 435:./Drivers/STM32F1xx_HAL_Driver/Src/stm32f1xx_hal_flash_ex.c ****   * @brief  Program option bytes
 436:./Drivers/STM32F1xx_HAL_Driver/Src/stm32f1xx_hal_flash_ex.c ****   * @note   The function @ref HAL_FLASH_Unlock() should be called before to unlock the FLASH interf
 437:./Drivers/STM32F1xx_HAL_Driver/Src/stm32f1xx_hal_flash_ex.c ****   *         The function @ref HAL_FLASH_OB_Unlock() should be called before to unlock the options b
 438:./Drivers/STM32F1xx_HAL_Driver/Src/stm32f1xx_hal_flash_ex.c ****   *         The function @ref HAL_FLASH_OB_Launch() should be called after to force the reload of t
 439:./Drivers/STM32F1xx_HAL_Driver/Src/stm32f1xx_hal_flash_ex.c ****   *         (system reset will occur)
 440:./Drivers/STM32F1xx_HAL_Driver/Src/stm32f1xx_hal_flash_ex.c ****   *
 441:./Drivers/STM32F1xx_HAL_Driver/Src/stm32f1xx_hal_flash_ex.c ****   * @param  pOBInit pointer to an FLASH_OBInitStruct structure that
 442:./Drivers/STM32F1xx_HAL_Driver/Src/stm32f1xx_hal_flash_ex.c ****   *         contains the configuration information for the programming.
 443:./Drivers/STM32F1xx_HAL_Driver/Src/stm32f1xx_hal_flash_ex.c ****   *
 444:./Drivers/STM32F1xx_HAL_Driver/Src/stm32f1xx_hal_flash_ex.c ****   * @retval HAL_StatusTypeDef HAL Status
 445:./Drivers/STM32F1xx_HAL_Driver/Src/stm32f1xx_hal_flash_ex.c ****   */
 446:./Drivers/STM32F1xx_HAL_Driver/Src/stm32f1xx_hal_flash_ex.c **** HAL_StatusTypeDef HAL_FLASHEx_OBProgram(FLASH_OBProgramInitTypeDef *pOBInit)
 447:./Drivers/STM32F1xx_HAL_Driver/Src/stm32f1xx_hal_flash_ex.c **** {
 394              		.loc 1 447 1
 395              		.cfi_startproc
 396              		@ args = 0, pretend = 0, frame = 16
 397              		@ frame_needed = 1, uses_anonymous_args = 0
 398 0000 80B5     		push	{r7, lr}
 399              		.cfi_def_cfa_offset 8
 400              		.cfi_offset 7, -8
 401              		.cfi_offset 14, -4
 402 0002 84B0     		sub	sp, sp, #16
 403              		.cfi_def_cfa_offset 24
 404 0004 00AF     		add	r7, sp, #0
 405              		.cfi_def_cfa_register 7
 406 0006 7860     		str	r0, [r7, #4]
 448:./Drivers/STM32F1xx_HAL_Driver/Src/stm32f1xx_hal_flash_ex.c ****   HAL_StatusTypeDef status = HAL_ERROR;
 407              		.loc 1 448 21
 408 0008 0123     		movs	r3, #1
ARM GAS  C:\Users\ULTIMA~1\AppData\Local\Temp\ccbIrIj9.s 			page 16


 409 000a FB73     		strb	r3, [r7, #15]
 449:./Drivers/STM32F1xx_HAL_Driver/Src/stm32f1xx_hal_flash_ex.c **** 
 450:./Drivers/STM32F1xx_HAL_Driver/Src/stm32f1xx_hal_flash_ex.c ****   /* Process Locked */
 451:./Drivers/STM32F1xx_HAL_Driver/Src/stm32f1xx_hal_flash_ex.c ****   __HAL_LOCK(&pFlash);
 410              		.loc 1 451 3
 411 000c 394B     		ldr	r3, .L33
 412 000e 1B7E     		ldrb	r3, [r3, #24]	@ zero_extendqisi2
 413 0010 012B     		cmp	r3, #1
 414 0012 01D1     		bne	.L25
 415              		.loc 1 451 3 is_stmt 0 discriminator 1
 416 0014 0223     		movs	r3, #2
 417 0016 69E0     		b	.L26
 418              	.L25:
 419              		.loc 1 451 3 discriminator 2
 420 0018 364B     		ldr	r3, .L33
 421 001a 0122     		movs	r2, #1
 422 001c 1A76     		strb	r2, [r3, #24]
 452:./Drivers/STM32F1xx_HAL_Driver/Src/stm32f1xx_hal_flash_ex.c **** 
 453:./Drivers/STM32F1xx_HAL_Driver/Src/stm32f1xx_hal_flash_ex.c ****   /* Check the parameters */
 454:./Drivers/STM32F1xx_HAL_Driver/Src/stm32f1xx_hal_flash_ex.c ****   assert_param(IS_OPTIONBYTE(pOBInit->OptionType));
 455:./Drivers/STM32F1xx_HAL_Driver/Src/stm32f1xx_hal_flash_ex.c **** 
 456:./Drivers/STM32F1xx_HAL_Driver/Src/stm32f1xx_hal_flash_ex.c ****   /* Write protection configuration */
 457:./Drivers/STM32F1xx_HAL_Driver/Src/stm32f1xx_hal_flash_ex.c ****   if((pOBInit->OptionType & OPTIONBYTE_WRP) == OPTIONBYTE_WRP)
 423              		.loc 1 457 14 is_stmt 1 discriminator 2
 424 001e 7B68     		ldr	r3, [r7, #4]
 425 0020 1B68     		ldr	r3, [r3]
 426              		.loc 1 457 27 discriminator 2
 427 0022 03F00103 		and	r3, r3, #1
 428              		.loc 1 457 5 discriminator 2
 429 0026 002B     		cmp	r3, #0
 430 0028 1AD0     		beq	.L27
 458:./Drivers/STM32F1xx_HAL_Driver/Src/stm32f1xx_hal_flash_ex.c ****   {
 459:./Drivers/STM32F1xx_HAL_Driver/Src/stm32f1xx_hal_flash_ex.c ****     assert_param(IS_WRPSTATE(pOBInit->WRPState));
 460:./Drivers/STM32F1xx_HAL_Driver/Src/stm32f1xx_hal_flash_ex.c ****     if (pOBInit->WRPState == OB_WRPSTATE_ENABLE)
 431              		.loc 1 460 16
 432 002a 7B68     		ldr	r3, [r7, #4]
 433 002c 5B68     		ldr	r3, [r3, #4]
 434              		.loc 1 460 8
 435 002e 012B     		cmp	r3, #1
 436 0030 07D1     		bne	.L28
 461:./Drivers/STM32F1xx_HAL_Driver/Src/stm32f1xx_hal_flash_ex.c ****     {
 462:./Drivers/STM32F1xx_HAL_Driver/Src/stm32f1xx_hal_flash_ex.c ****       /* Enable of Write protection on the selected page */
 463:./Drivers/STM32F1xx_HAL_Driver/Src/stm32f1xx_hal_flash_ex.c ****       status = FLASH_OB_EnableWRP(pOBInit->WRPPage);
 437              		.loc 1 463 16
 438 0032 7B68     		ldr	r3, [r7, #4]
 439 0034 9B68     		ldr	r3, [r3, #8]
 440 0036 1846     		mov	r0, r3
 441 0038 FFF7FEFF 		bl	FLASH_OB_EnableWRP
 442 003c 0346     		mov	r3, r0
 443 003e FB73     		strb	r3, [r7, #15]
 444 0040 06E0     		b	.L29
 445              	.L28:
 464:./Drivers/STM32F1xx_HAL_Driver/Src/stm32f1xx_hal_flash_ex.c ****     }
 465:./Drivers/STM32F1xx_HAL_Driver/Src/stm32f1xx_hal_flash_ex.c ****     else
 466:./Drivers/STM32F1xx_HAL_Driver/Src/stm32f1xx_hal_flash_ex.c ****     {
 467:./Drivers/STM32F1xx_HAL_Driver/Src/stm32f1xx_hal_flash_ex.c ****       /* Disable of Write protection on the selected page */
 468:./Drivers/STM32F1xx_HAL_Driver/Src/stm32f1xx_hal_flash_ex.c ****       status = FLASH_OB_DisableWRP(pOBInit->WRPPage);
ARM GAS  C:\Users\ULTIMA~1\AppData\Local\Temp\ccbIrIj9.s 			page 17


 446              		.loc 1 468 16
 447 0042 7B68     		ldr	r3, [r7, #4]
 448 0044 9B68     		ldr	r3, [r3, #8]
 449 0046 1846     		mov	r0, r3
 450 0048 FFF7FEFF 		bl	FLASH_OB_DisableWRP
 451 004c 0346     		mov	r3, r0
 452 004e FB73     		strb	r3, [r7, #15]
 453              	.L29:
 469:./Drivers/STM32F1xx_HAL_Driver/Src/stm32f1xx_hal_flash_ex.c ****     }
 470:./Drivers/STM32F1xx_HAL_Driver/Src/stm32f1xx_hal_flash_ex.c ****     if (status != HAL_OK)
 454              		.loc 1 470 8
 455 0050 FB7B     		ldrb	r3, [r7, #15]	@ zero_extendqisi2
 456 0052 002B     		cmp	r3, #0
 457 0054 04D0     		beq	.L27
 471:./Drivers/STM32F1xx_HAL_Driver/Src/stm32f1xx_hal_flash_ex.c ****     {
 472:./Drivers/STM32F1xx_HAL_Driver/Src/stm32f1xx_hal_flash_ex.c ****       /* Process Unlocked */
 473:./Drivers/STM32F1xx_HAL_Driver/Src/stm32f1xx_hal_flash_ex.c ****       __HAL_UNLOCK(&pFlash);
 458              		.loc 1 473 7
 459 0056 274B     		ldr	r3, .L33
 460 0058 0022     		movs	r2, #0
 461 005a 1A76     		strb	r2, [r3, #24]
 474:./Drivers/STM32F1xx_HAL_Driver/Src/stm32f1xx_hal_flash_ex.c ****       return status;
 462              		.loc 1 474 14
 463 005c FB7B     		ldrb	r3, [r7, #15]	@ zero_extendqisi2
 464 005e 45E0     		b	.L26
 465              	.L27:
 475:./Drivers/STM32F1xx_HAL_Driver/Src/stm32f1xx_hal_flash_ex.c ****     }
 476:./Drivers/STM32F1xx_HAL_Driver/Src/stm32f1xx_hal_flash_ex.c ****   }
 477:./Drivers/STM32F1xx_HAL_Driver/Src/stm32f1xx_hal_flash_ex.c **** 
 478:./Drivers/STM32F1xx_HAL_Driver/Src/stm32f1xx_hal_flash_ex.c ****   /* Read protection configuration */
 479:./Drivers/STM32F1xx_HAL_Driver/Src/stm32f1xx_hal_flash_ex.c ****   if((pOBInit->OptionType & OPTIONBYTE_RDP) == OPTIONBYTE_RDP)
 466              		.loc 1 479 14
 467 0060 7B68     		ldr	r3, [r7, #4]
 468 0062 1B68     		ldr	r3, [r3]
 469              		.loc 1 479 27
 470 0064 03F00203 		and	r3, r3, #2
 471              		.loc 1 479 5
 472 0068 002B     		cmp	r3, #0
 473 006a 0ED0     		beq	.L30
 480:./Drivers/STM32F1xx_HAL_Driver/Src/stm32f1xx_hal_flash_ex.c ****   {
 481:./Drivers/STM32F1xx_HAL_Driver/Src/stm32f1xx_hal_flash_ex.c ****     status = FLASH_OB_RDP_LevelConfig(pOBInit->RDPLevel);
 474              		.loc 1 481 14
 475 006c 7B68     		ldr	r3, [r7, #4]
 476 006e 1B7C     		ldrb	r3, [r3, #16]	@ zero_extendqisi2
 477 0070 1846     		mov	r0, r3
 478 0072 FFF7FEFF 		bl	FLASH_OB_RDP_LevelConfig
 479 0076 0346     		mov	r3, r0
 480 0078 FB73     		strb	r3, [r7, #15]
 482:./Drivers/STM32F1xx_HAL_Driver/Src/stm32f1xx_hal_flash_ex.c ****     if (status != HAL_OK)
 481              		.loc 1 482 8
 482 007a FB7B     		ldrb	r3, [r7, #15]	@ zero_extendqisi2
 483 007c 002B     		cmp	r3, #0
 484 007e 04D0     		beq	.L30
 483:./Drivers/STM32F1xx_HAL_Driver/Src/stm32f1xx_hal_flash_ex.c ****     {
 484:./Drivers/STM32F1xx_HAL_Driver/Src/stm32f1xx_hal_flash_ex.c ****       /* Process Unlocked */
 485:./Drivers/STM32F1xx_HAL_Driver/Src/stm32f1xx_hal_flash_ex.c ****       __HAL_UNLOCK(&pFlash);
 485              		.loc 1 485 7
ARM GAS  C:\Users\ULTIMA~1\AppData\Local\Temp\ccbIrIj9.s 			page 18


 486 0080 1C4B     		ldr	r3, .L33
 487 0082 0022     		movs	r2, #0
 488 0084 1A76     		strb	r2, [r3, #24]
 486:./Drivers/STM32F1xx_HAL_Driver/Src/stm32f1xx_hal_flash_ex.c ****       return status;
 489              		.loc 1 486 14
 490 0086 FB7B     		ldrb	r3, [r7, #15]	@ zero_extendqisi2
 491 0088 30E0     		b	.L26
 492              	.L30:
 487:./Drivers/STM32F1xx_HAL_Driver/Src/stm32f1xx_hal_flash_ex.c ****     }
 488:./Drivers/STM32F1xx_HAL_Driver/Src/stm32f1xx_hal_flash_ex.c ****   }
 489:./Drivers/STM32F1xx_HAL_Driver/Src/stm32f1xx_hal_flash_ex.c **** 
 490:./Drivers/STM32F1xx_HAL_Driver/Src/stm32f1xx_hal_flash_ex.c ****   /* USER configuration */
 491:./Drivers/STM32F1xx_HAL_Driver/Src/stm32f1xx_hal_flash_ex.c ****   if((pOBInit->OptionType & OPTIONBYTE_USER) == OPTIONBYTE_USER)
 493              		.loc 1 491 14
 494 008a 7B68     		ldr	r3, [r7, #4]
 495 008c 1B68     		ldr	r3, [r3]
 496              		.loc 1 491 27
 497 008e 03F00403 		and	r3, r3, #4
 498              		.loc 1 491 5
 499 0092 002B     		cmp	r3, #0
 500 0094 0ED0     		beq	.L31
 492:./Drivers/STM32F1xx_HAL_Driver/Src/stm32f1xx_hal_flash_ex.c ****   {
 493:./Drivers/STM32F1xx_HAL_Driver/Src/stm32f1xx_hal_flash_ex.c ****     status = FLASH_OB_UserConfig(pOBInit->USERConfig);
 501              		.loc 1 493 14
 502 0096 7B68     		ldr	r3, [r7, #4]
 503 0098 5B7C     		ldrb	r3, [r3, #17]	@ zero_extendqisi2
 504 009a 1846     		mov	r0, r3
 505 009c FFF7FEFF 		bl	FLASH_OB_UserConfig
 506 00a0 0346     		mov	r3, r0
 507 00a2 FB73     		strb	r3, [r7, #15]
 494:./Drivers/STM32F1xx_HAL_Driver/Src/stm32f1xx_hal_flash_ex.c ****     if (status != HAL_OK)
 508              		.loc 1 494 8
 509 00a4 FB7B     		ldrb	r3, [r7, #15]	@ zero_extendqisi2
 510 00a6 002B     		cmp	r3, #0
 511 00a8 04D0     		beq	.L31
 495:./Drivers/STM32F1xx_HAL_Driver/Src/stm32f1xx_hal_flash_ex.c ****     {
 496:./Drivers/STM32F1xx_HAL_Driver/Src/stm32f1xx_hal_flash_ex.c ****       /* Process Unlocked */
 497:./Drivers/STM32F1xx_HAL_Driver/Src/stm32f1xx_hal_flash_ex.c ****       __HAL_UNLOCK(&pFlash);
 512              		.loc 1 497 7
 513 00aa 124B     		ldr	r3, .L33
 514 00ac 0022     		movs	r2, #0
 515 00ae 1A76     		strb	r2, [r3, #24]
 498:./Drivers/STM32F1xx_HAL_Driver/Src/stm32f1xx_hal_flash_ex.c ****       return status;
 516              		.loc 1 498 14
 517 00b0 FB7B     		ldrb	r3, [r7, #15]	@ zero_extendqisi2
 518 00b2 1BE0     		b	.L26
 519              	.L31:
 499:./Drivers/STM32F1xx_HAL_Driver/Src/stm32f1xx_hal_flash_ex.c ****     }
 500:./Drivers/STM32F1xx_HAL_Driver/Src/stm32f1xx_hal_flash_ex.c ****   }
 501:./Drivers/STM32F1xx_HAL_Driver/Src/stm32f1xx_hal_flash_ex.c **** 
 502:./Drivers/STM32F1xx_HAL_Driver/Src/stm32f1xx_hal_flash_ex.c ****   /* DATA configuration*/
 503:./Drivers/STM32F1xx_HAL_Driver/Src/stm32f1xx_hal_flash_ex.c ****   if((pOBInit->OptionType & OPTIONBYTE_DATA) == OPTIONBYTE_DATA)
 520              		.loc 1 503 14
 521 00b4 7B68     		ldr	r3, [r7, #4]
 522 00b6 1B68     		ldr	r3, [r3]
 523              		.loc 1 503 27
 524 00b8 03F00803 		and	r3, r3, #8
ARM GAS  C:\Users\ULTIMA~1\AppData\Local\Temp\ccbIrIj9.s 			page 19


 525              		.loc 1 503 5
 526 00bc 002B     		cmp	r3, #0
 527 00be 11D0     		beq	.L32
 504:./Drivers/STM32F1xx_HAL_Driver/Src/stm32f1xx_hal_flash_ex.c ****   {
 505:./Drivers/STM32F1xx_HAL_Driver/Src/stm32f1xx_hal_flash_ex.c ****     status = FLASH_OB_ProgramData(pOBInit->DATAAddress, pOBInit->DATAData);
 528              		.loc 1 505 14
 529 00c0 7B68     		ldr	r3, [r7, #4]
 530 00c2 5A69     		ldr	r2, [r3, #20]
 531 00c4 7B68     		ldr	r3, [r7, #4]
 532 00c6 1B7E     		ldrb	r3, [r3, #24]	@ zero_extendqisi2
 533 00c8 1946     		mov	r1, r3
 534 00ca 1046     		mov	r0, r2
 535 00cc FFF7FEFF 		bl	FLASH_OB_ProgramData
 536 00d0 0346     		mov	r3, r0
 537 00d2 FB73     		strb	r3, [r7, #15]
 506:./Drivers/STM32F1xx_HAL_Driver/Src/stm32f1xx_hal_flash_ex.c ****     if (status != HAL_OK)
 538              		.loc 1 506 8
 539 00d4 FB7B     		ldrb	r3, [r7, #15]	@ zero_extendqisi2
 540 00d6 002B     		cmp	r3, #0
 541 00d8 04D0     		beq	.L32
 507:./Drivers/STM32F1xx_HAL_Driver/Src/stm32f1xx_hal_flash_ex.c ****     {
 508:./Drivers/STM32F1xx_HAL_Driver/Src/stm32f1xx_hal_flash_ex.c ****       /* Process Unlocked */
 509:./Drivers/STM32F1xx_HAL_Driver/Src/stm32f1xx_hal_flash_ex.c ****       __HAL_UNLOCK(&pFlash);
 542              		.loc 1 509 7
 543 00da 064B     		ldr	r3, .L33
 544 00dc 0022     		movs	r2, #0
 545 00de 1A76     		strb	r2, [r3, #24]
 510:./Drivers/STM32F1xx_HAL_Driver/Src/stm32f1xx_hal_flash_ex.c ****       return status;
 546              		.loc 1 510 14
 547 00e0 FB7B     		ldrb	r3, [r7, #15]	@ zero_extendqisi2
 548 00e2 03E0     		b	.L26
 549              	.L32:
 511:./Drivers/STM32F1xx_HAL_Driver/Src/stm32f1xx_hal_flash_ex.c ****     }
 512:./Drivers/STM32F1xx_HAL_Driver/Src/stm32f1xx_hal_flash_ex.c ****   }
 513:./Drivers/STM32F1xx_HAL_Driver/Src/stm32f1xx_hal_flash_ex.c **** 
 514:./Drivers/STM32F1xx_HAL_Driver/Src/stm32f1xx_hal_flash_ex.c ****   /* Process Unlocked */
 515:./Drivers/STM32F1xx_HAL_Driver/Src/stm32f1xx_hal_flash_ex.c ****   __HAL_UNLOCK(&pFlash);
 550              		.loc 1 515 3
 551 00e4 034B     		ldr	r3, .L33
 552 00e6 0022     		movs	r2, #0
 553 00e8 1A76     		strb	r2, [r3, #24]
 516:./Drivers/STM32F1xx_HAL_Driver/Src/stm32f1xx_hal_flash_ex.c **** 
 517:./Drivers/STM32F1xx_HAL_Driver/Src/stm32f1xx_hal_flash_ex.c ****   return status;
 554              		.loc 1 517 10
 555 00ea FB7B     		ldrb	r3, [r7, #15]	@ zero_extendqisi2
 556              	.L26:
 518:./Drivers/STM32F1xx_HAL_Driver/Src/stm32f1xx_hal_flash_ex.c **** }
 557              		.loc 1 518 1
 558 00ec 1846     		mov	r0, r3
 559 00ee 1037     		adds	r7, r7, #16
 560              		.cfi_def_cfa_offset 8
 561 00f0 BD46     		mov	sp, r7
 562              		.cfi_def_cfa_register 13
 563              		@ sp needed
 564 00f2 80BD     		pop	{r7, pc}
 565              	.L34:
 566              		.align	2
ARM GAS  C:\Users\ULTIMA~1\AppData\Local\Temp\ccbIrIj9.s 			page 20


 567              	.L33:
 568 00f4 00000000 		.word	pFlash
 569              		.cfi_endproc
 570              	.LFE68:
 572              		.section	.text.HAL_FLASHEx_OBGetConfig,"ax",%progbits
 573              		.align	1
 574              		.global	HAL_FLASHEx_OBGetConfig
 575              		.syntax unified
 576              		.thumb
 577              		.thumb_func
 579              	HAL_FLASHEx_OBGetConfig:
 580              	.LFB69:
 519:./Drivers/STM32F1xx_HAL_Driver/Src/stm32f1xx_hal_flash_ex.c **** 
 520:./Drivers/STM32F1xx_HAL_Driver/Src/stm32f1xx_hal_flash_ex.c **** /**
 521:./Drivers/STM32F1xx_HAL_Driver/Src/stm32f1xx_hal_flash_ex.c ****   * @brief  Get the Option byte configuration
 522:./Drivers/STM32F1xx_HAL_Driver/Src/stm32f1xx_hal_flash_ex.c ****   * @param  pOBInit pointer to an FLASH_OBInitStruct structure that
 523:./Drivers/STM32F1xx_HAL_Driver/Src/stm32f1xx_hal_flash_ex.c ****   *         contains the configuration information for the programming.
 524:./Drivers/STM32F1xx_HAL_Driver/Src/stm32f1xx_hal_flash_ex.c ****   *
 525:./Drivers/STM32F1xx_HAL_Driver/Src/stm32f1xx_hal_flash_ex.c ****   * @retval None
 526:./Drivers/STM32F1xx_HAL_Driver/Src/stm32f1xx_hal_flash_ex.c ****   */
 527:./Drivers/STM32F1xx_HAL_Driver/Src/stm32f1xx_hal_flash_ex.c **** void HAL_FLASHEx_OBGetConfig(FLASH_OBProgramInitTypeDef *pOBInit)
 528:./Drivers/STM32F1xx_HAL_Driver/Src/stm32f1xx_hal_flash_ex.c **** {
 581              		.loc 1 528 1
 582              		.cfi_startproc
 583              		@ args = 0, pretend = 0, frame = 8
 584              		@ frame_needed = 1, uses_anonymous_args = 0
 585 0000 80B5     		push	{r7, lr}
 586              		.cfi_def_cfa_offset 8
 587              		.cfi_offset 7, -8
 588              		.cfi_offset 14, -4
 589 0002 82B0     		sub	sp, sp, #8
 590              		.cfi_def_cfa_offset 16
 591 0004 00AF     		add	r7, sp, #0
 592              		.cfi_def_cfa_register 7
 593 0006 7860     		str	r0, [r7, #4]
 529:./Drivers/STM32F1xx_HAL_Driver/Src/stm32f1xx_hal_flash_ex.c ****   pOBInit->OptionType = OPTIONBYTE_WRP | OPTIONBYTE_RDP | OPTIONBYTE_USER;
 594              		.loc 1 529 23
 595 0008 7B68     		ldr	r3, [r7, #4]
 596 000a 0722     		movs	r2, #7
 597 000c 1A60     		str	r2, [r3]
 530:./Drivers/STM32F1xx_HAL_Driver/Src/stm32f1xx_hal_flash_ex.c **** 
 531:./Drivers/STM32F1xx_HAL_Driver/Src/stm32f1xx_hal_flash_ex.c ****   /*Get WRP*/
 532:./Drivers/STM32F1xx_HAL_Driver/Src/stm32f1xx_hal_flash_ex.c ****   pOBInit->WRPPage = FLASH_OB_GetWRP();
 598              		.loc 1 532 22
 599 000e FFF7FEFF 		bl	FLASH_OB_GetWRP
 600 0012 0246     		mov	r2, r0
 601              		.loc 1 532 20
 602 0014 7B68     		ldr	r3, [r7, #4]
 603 0016 9A60     		str	r2, [r3, #8]
 533:./Drivers/STM32F1xx_HAL_Driver/Src/stm32f1xx_hal_flash_ex.c **** 
 534:./Drivers/STM32F1xx_HAL_Driver/Src/stm32f1xx_hal_flash_ex.c ****   /*Get RDP Level*/
 535:./Drivers/STM32F1xx_HAL_Driver/Src/stm32f1xx_hal_flash_ex.c ****   pOBInit->RDPLevel = FLASH_OB_GetRDP();
 604              		.loc 1 535 23
 605 0018 FFF7FEFF 		bl	FLASH_OB_GetRDP
 606 001c 0346     		mov	r3, r0
 607              		.loc 1 535 21
 608 001e DAB2     		uxtb	r2, r3
ARM GAS  C:\Users\ULTIMA~1\AppData\Local\Temp\ccbIrIj9.s 			page 21


 609 0020 7B68     		ldr	r3, [r7, #4]
 610 0022 1A74     		strb	r2, [r3, #16]
 536:./Drivers/STM32F1xx_HAL_Driver/Src/stm32f1xx_hal_flash_ex.c **** 
 537:./Drivers/STM32F1xx_HAL_Driver/Src/stm32f1xx_hal_flash_ex.c ****   /*Get USER*/
 538:./Drivers/STM32F1xx_HAL_Driver/Src/stm32f1xx_hal_flash_ex.c ****   pOBInit->USERConfig = FLASH_OB_GetUser();
 611              		.loc 1 538 25
 612 0024 FFF7FEFF 		bl	FLASH_OB_GetUser
 613 0028 0346     		mov	r3, r0
 614 002a 1A46     		mov	r2, r3
 615              		.loc 1 538 23
 616 002c 7B68     		ldr	r3, [r7, #4]
 617 002e 5A74     		strb	r2, [r3, #17]
 539:./Drivers/STM32F1xx_HAL_Driver/Src/stm32f1xx_hal_flash_ex.c **** }
 618              		.loc 1 539 1
 619 0030 00BF     		nop
 620 0032 0837     		adds	r7, r7, #8
 621              		.cfi_def_cfa_offset 8
 622 0034 BD46     		mov	sp, r7
 623              		.cfi_def_cfa_register 13
 624              		@ sp needed
 625 0036 80BD     		pop	{r7, pc}
 626              		.cfi_endproc
 627              	.LFE69:
 629              		.section	.text.HAL_FLASHEx_OBGetUserData,"ax",%progbits
 630              		.align	1
 631              		.global	HAL_FLASHEx_OBGetUserData
 632              		.syntax unified
 633              		.thumb
 634              		.thumb_func
 636              	HAL_FLASHEx_OBGetUserData:
 637              	.LFB70:
 540:./Drivers/STM32F1xx_HAL_Driver/Src/stm32f1xx_hal_flash_ex.c **** 
 541:./Drivers/STM32F1xx_HAL_Driver/Src/stm32f1xx_hal_flash_ex.c **** /**
 542:./Drivers/STM32F1xx_HAL_Driver/Src/stm32f1xx_hal_flash_ex.c ****   * @brief  Get the Option byte user data
 543:./Drivers/STM32F1xx_HAL_Driver/Src/stm32f1xx_hal_flash_ex.c ****   * @param  DATAAdress Address of the option byte DATA
 544:./Drivers/STM32F1xx_HAL_Driver/Src/stm32f1xx_hal_flash_ex.c ****   *          This parameter can be one of the following values:
 545:./Drivers/STM32F1xx_HAL_Driver/Src/stm32f1xx_hal_flash_ex.c ****   *            @arg @ref OB_DATA_ADDRESS_DATA0
 546:./Drivers/STM32F1xx_HAL_Driver/Src/stm32f1xx_hal_flash_ex.c ****   *            @arg @ref OB_DATA_ADDRESS_DATA1
 547:./Drivers/STM32F1xx_HAL_Driver/Src/stm32f1xx_hal_flash_ex.c ****   * @retval Value programmed in USER data
 548:./Drivers/STM32F1xx_HAL_Driver/Src/stm32f1xx_hal_flash_ex.c ****   */
 549:./Drivers/STM32F1xx_HAL_Driver/Src/stm32f1xx_hal_flash_ex.c **** uint32_t HAL_FLASHEx_OBGetUserData(uint32_t DATAAdress)
 550:./Drivers/STM32F1xx_HAL_Driver/Src/stm32f1xx_hal_flash_ex.c **** {
 638              		.loc 1 550 1
 639              		.cfi_startproc
 640              		@ args = 0, pretend = 0, frame = 16
 641              		@ frame_needed = 1, uses_anonymous_args = 0
 642              		@ link register save eliminated.
 643 0000 80B4     		push	{r7}
 644              		.cfi_def_cfa_offset 4
 645              		.cfi_offset 7, -4
 646 0002 85B0     		sub	sp, sp, #20
 647              		.cfi_def_cfa_offset 24
 648 0004 00AF     		add	r7, sp, #0
 649              		.cfi_def_cfa_register 7
 650 0006 7860     		str	r0, [r7, #4]
 551:./Drivers/STM32F1xx_HAL_Driver/Src/stm32f1xx_hal_flash_ex.c ****   uint32_t value = 0;
 651              		.loc 1 551 12
ARM GAS  C:\Users\ULTIMA~1\AppData\Local\Temp\ccbIrIj9.s 			page 22


 652 0008 0023     		movs	r3, #0
 653 000a FB60     		str	r3, [r7, #12]
 552:./Drivers/STM32F1xx_HAL_Driver/Src/stm32f1xx_hal_flash_ex.c ****   
 553:./Drivers/STM32F1xx_HAL_Driver/Src/stm32f1xx_hal_flash_ex.c ****   if (DATAAdress == OB_DATA_ADDRESS_DATA0)
 654              		.loc 1 553 6
 655 000c 7B68     		ldr	r3, [r7, #4]
 656 000e 0A4A     		ldr	r2, .L40
 657 0010 9342     		cmp	r3, r2
 658 0012 05D1     		bne	.L37
 554:./Drivers/STM32F1xx_HAL_Driver/Src/stm32f1xx_hal_flash_ex.c ****   {
 555:./Drivers/STM32F1xx_HAL_Driver/Src/stm32f1xx_hal_flash_ex.c ****     /* Get value programmed in OB USER Data0 */
 556:./Drivers/STM32F1xx_HAL_Driver/Src/stm32f1xx_hal_flash_ex.c ****     value = READ_BIT(FLASH->OBR, FLASH_OBR_DATA0) >> FLASH_POSITION_OB_USERDATA0_BIT;
 659              		.loc 1 556 13
 660 0014 094B     		ldr	r3, .L40+4
 661 0016 DB69     		ldr	r3, [r3, #28]
 662              		.loc 1 556 51
 663 0018 9B0A     		lsrs	r3, r3, #10
 664              		.loc 1 556 11
 665 001a DBB2     		uxtb	r3, r3
 666 001c FB60     		str	r3, [r7, #12]
 667 001e 04E0     		b	.L38
 668              	.L37:
 557:./Drivers/STM32F1xx_HAL_Driver/Src/stm32f1xx_hal_flash_ex.c ****   }
 558:./Drivers/STM32F1xx_HAL_Driver/Src/stm32f1xx_hal_flash_ex.c ****   else
 559:./Drivers/STM32F1xx_HAL_Driver/Src/stm32f1xx_hal_flash_ex.c ****   {
 560:./Drivers/STM32F1xx_HAL_Driver/Src/stm32f1xx_hal_flash_ex.c ****     /* Get value programmed in OB USER Data1 */
 561:./Drivers/STM32F1xx_HAL_Driver/Src/stm32f1xx_hal_flash_ex.c ****     value = READ_BIT(FLASH->OBR, FLASH_OBR_DATA1) >> FLASH_POSITION_OB_USERDATA1_BIT;
 669              		.loc 1 561 13
 670 0020 064B     		ldr	r3, .L40+4
 671 0022 DB69     		ldr	r3, [r3, #28]
 672              		.loc 1 561 51
 673 0024 9B0C     		lsrs	r3, r3, #18
 674              		.loc 1 561 11
 675 0026 DBB2     		uxtb	r3, r3
 676 0028 FB60     		str	r3, [r7, #12]
 677              	.L38:
 562:./Drivers/STM32F1xx_HAL_Driver/Src/stm32f1xx_hal_flash_ex.c ****   }
 563:./Drivers/STM32F1xx_HAL_Driver/Src/stm32f1xx_hal_flash_ex.c ****   
 564:./Drivers/STM32F1xx_HAL_Driver/Src/stm32f1xx_hal_flash_ex.c ****   return value;
 678              		.loc 1 564 10
 679 002a FB68     		ldr	r3, [r7, #12]
 565:./Drivers/STM32F1xx_HAL_Driver/Src/stm32f1xx_hal_flash_ex.c **** }
 680              		.loc 1 565 1
 681 002c 1846     		mov	r0, r3
 682 002e 1437     		adds	r7, r7, #20
 683              		.cfi_def_cfa_offset 4
 684 0030 BD46     		mov	sp, r7
 685              		.cfi_def_cfa_register 13
 686              		@ sp needed
 687 0032 80BC     		pop	{r7}
 688              		.cfi_restore 7
 689              		.cfi_def_cfa_offset 0
 690 0034 7047     		bx	lr
 691              	.L41:
 692 0036 00BF     		.align	2
 693              	.L40:
 694 0038 04F8FF1F 		.word	536868868
ARM GAS  C:\Users\ULTIMA~1\AppData\Local\Temp\ccbIrIj9.s 			page 23


 695 003c 00200240 		.word	1073881088
 696              		.cfi_endproc
 697              	.LFE70:
 699              		.section	.text.FLASH_MassErase,"ax",%progbits
 700              		.align	1
 701              		.syntax unified
 702              		.thumb
 703              		.thumb_func
 705              	FLASH_MassErase:
 706              	.LFB71:
 566:./Drivers/STM32F1xx_HAL_Driver/Src/stm32f1xx_hal_flash_ex.c **** 
 567:./Drivers/STM32F1xx_HAL_Driver/Src/stm32f1xx_hal_flash_ex.c **** /**
 568:./Drivers/STM32F1xx_HAL_Driver/Src/stm32f1xx_hal_flash_ex.c ****   * @}
 569:./Drivers/STM32F1xx_HAL_Driver/Src/stm32f1xx_hal_flash_ex.c ****   */
 570:./Drivers/STM32F1xx_HAL_Driver/Src/stm32f1xx_hal_flash_ex.c **** 
 571:./Drivers/STM32F1xx_HAL_Driver/Src/stm32f1xx_hal_flash_ex.c **** /**
 572:./Drivers/STM32F1xx_HAL_Driver/Src/stm32f1xx_hal_flash_ex.c ****   * @}
 573:./Drivers/STM32F1xx_HAL_Driver/Src/stm32f1xx_hal_flash_ex.c ****   */
 574:./Drivers/STM32F1xx_HAL_Driver/Src/stm32f1xx_hal_flash_ex.c **** 
 575:./Drivers/STM32F1xx_HAL_Driver/Src/stm32f1xx_hal_flash_ex.c **** /** @addtogroup FLASHEx_Private_Functions
 576:./Drivers/STM32F1xx_HAL_Driver/Src/stm32f1xx_hal_flash_ex.c ****  * @{
 577:./Drivers/STM32F1xx_HAL_Driver/Src/stm32f1xx_hal_flash_ex.c ****  */
 578:./Drivers/STM32F1xx_HAL_Driver/Src/stm32f1xx_hal_flash_ex.c **** 
 579:./Drivers/STM32F1xx_HAL_Driver/Src/stm32f1xx_hal_flash_ex.c **** /**
 580:./Drivers/STM32F1xx_HAL_Driver/Src/stm32f1xx_hal_flash_ex.c ****   * @brief  Full erase of FLASH memory Bank 
 581:./Drivers/STM32F1xx_HAL_Driver/Src/stm32f1xx_hal_flash_ex.c ****   * @param  Banks Banks to be erased
 582:./Drivers/STM32F1xx_HAL_Driver/Src/stm32f1xx_hal_flash_ex.c ****   *          This parameter can be one of the following values:
 583:./Drivers/STM32F1xx_HAL_Driver/Src/stm32f1xx_hal_flash_ex.c ****   *            @arg @ref FLASH_BANK_1 Bank1 to be erased
 584:./Drivers/STM32F1xx_HAL_Driver/Src/stm32f1xx_hal_flash_ex.c ****   @if STM32F101xG
 585:./Drivers/STM32F1xx_HAL_Driver/Src/stm32f1xx_hal_flash_ex.c ****   *            @arg @ref FLASH_BANK_2 Bank2 to be erased
 586:./Drivers/STM32F1xx_HAL_Driver/Src/stm32f1xx_hal_flash_ex.c ****   *            @arg @ref FLASH_BANK_BOTH Bank1 and Bank2 to be erased
 587:./Drivers/STM32F1xx_HAL_Driver/Src/stm32f1xx_hal_flash_ex.c ****   @endif
 588:./Drivers/STM32F1xx_HAL_Driver/Src/stm32f1xx_hal_flash_ex.c ****   @if STM32F103xG
 589:./Drivers/STM32F1xx_HAL_Driver/Src/stm32f1xx_hal_flash_ex.c ****   *            @arg @ref FLASH_BANK_2 Bank2 to be erased
 590:./Drivers/STM32F1xx_HAL_Driver/Src/stm32f1xx_hal_flash_ex.c ****   *            @arg @ref FLASH_BANK_BOTH Bank1 and Bank2 to be erased
 591:./Drivers/STM32F1xx_HAL_Driver/Src/stm32f1xx_hal_flash_ex.c ****   @endif
 592:./Drivers/STM32F1xx_HAL_Driver/Src/stm32f1xx_hal_flash_ex.c ****   *
 593:./Drivers/STM32F1xx_HAL_Driver/Src/stm32f1xx_hal_flash_ex.c ****   * @retval None
 594:./Drivers/STM32F1xx_HAL_Driver/Src/stm32f1xx_hal_flash_ex.c ****   */
 595:./Drivers/STM32F1xx_HAL_Driver/Src/stm32f1xx_hal_flash_ex.c **** static void FLASH_MassErase(uint32_t Banks)
 596:./Drivers/STM32F1xx_HAL_Driver/Src/stm32f1xx_hal_flash_ex.c **** {
 707              		.loc 1 596 1
 708              		.cfi_startproc
 709              		@ args = 0, pretend = 0, frame = 8
 710              		@ frame_needed = 1, uses_anonymous_args = 0
 711              		@ link register save eliminated.
 712 0000 80B4     		push	{r7}
 713              		.cfi_def_cfa_offset 4
 714              		.cfi_offset 7, -4
 715 0002 83B0     		sub	sp, sp, #12
 716              		.cfi_def_cfa_offset 16
 717 0004 00AF     		add	r7, sp, #0
 718              		.cfi_def_cfa_register 7
 719 0006 7860     		str	r0, [r7, #4]
 597:./Drivers/STM32F1xx_HAL_Driver/Src/stm32f1xx_hal_flash_ex.c ****   /* Check the parameters */
 598:./Drivers/STM32F1xx_HAL_Driver/Src/stm32f1xx_hal_flash_ex.c ****   assert_param(IS_FLASH_BANK(Banks));
 599:./Drivers/STM32F1xx_HAL_Driver/Src/stm32f1xx_hal_flash_ex.c **** 
ARM GAS  C:\Users\ULTIMA~1\AppData\Local\Temp\ccbIrIj9.s 			page 24


 600:./Drivers/STM32F1xx_HAL_Driver/Src/stm32f1xx_hal_flash_ex.c ****   /* Clean the error context */
 601:./Drivers/STM32F1xx_HAL_Driver/Src/stm32f1xx_hal_flash_ex.c ****   pFlash.ErrorCode = HAL_FLASH_ERROR_NONE;
 720              		.loc 1 601 20
 721 0008 094B     		ldr	r3, .L43
 722 000a 0022     		movs	r2, #0
 723 000c DA61     		str	r2, [r3, #28]
 602:./Drivers/STM32F1xx_HAL_Driver/Src/stm32f1xx_hal_flash_ex.c **** 
 603:./Drivers/STM32F1xx_HAL_Driver/Src/stm32f1xx_hal_flash_ex.c **** #if defined(FLASH_BANK2_END)
 604:./Drivers/STM32F1xx_HAL_Driver/Src/stm32f1xx_hal_flash_ex.c ****   if(Banks == FLASH_BANK_BOTH)
 605:./Drivers/STM32F1xx_HAL_Driver/Src/stm32f1xx_hal_flash_ex.c ****   {
 606:./Drivers/STM32F1xx_HAL_Driver/Src/stm32f1xx_hal_flash_ex.c ****     /* bank1 & bank2 will be erased*/
 607:./Drivers/STM32F1xx_HAL_Driver/Src/stm32f1xx_hal_flash_ex.c ****     SET_BIT(FLASH->CR, FLASH_CR_MER);
 608:./Drivers/STM32F1xx_HAL_Driver/Src/stm32f1xx_hal_flash_ex.c ****     SET_BIT(FLASH->CR2, FLASH_CR2_MER);
 609:./Drivers/STM32F1xx_HAL_Driver/Src/stm32f1xx_hal_flash_ex.c ****     SET_BIT(FLASH->CR, FLASH_CR_STRT);
 610:./Drivers/STM32F1xx_HAL_Driver/Src/stm32f1xx_hal_flash_ex.c ****     SET_BIT(FLASH->CR2, FLASH_CR2_STRT);
 611:./Drivers/STM32F1xx_HAL_Driver/Src/stm32f1xx_hal_flash_ex.c ****   }
 612:./Drivers/STM32F1xx_HAL_Driver/Src/stm32f1xx_hal_flash_ex.c ****   else if(Banks == FLASH_BANK_2)
 613:./Drivers/STM32F1xx_HAL_Driver/Src/stm32f1xx_hal_flash_ex.c ****   {
 614:./Drivers/STM32F1xx_HAL_Driver/Src/stm32f1xx_hal_flash_ex.c ****     /*Only bank2 will be erased*/
 615:./Drivers/STM32F1xx_HAL_Driver/Src/stm32f1xx_hal_flash_ex.c ****     SET_BIT(FLASH->CR2, FLASH_CR2_MER);
 616:./Drivers/STM32F1xx_HAL_Driver/Src/stm32f1xx_hal_flash_ex.c ****     SET_BIT(FLASH->CR2, FLASH_CR2_STRT);
 617:./Drivers/STM32F1xx_HAL_Driver/Src/stm32f1xx_hal_flash_ex.c ****   }
 618:./Drivers/STM32F1xx_HAL_Driver/Src/stm32f1xx_hal_flash_ex.c ****   else
 619:./Drivers/STM32F1xx_HAL_Driver/Src/stm32f1xx_hal_flash_ex.c ****   {
 620:./Drivers/STM32F1xx_HAL_Driver/Src/stm32f1xx_hal_flash_ex.c **** #endif /* FLASH_BANK2_END */
 621:./Drivers/STM32F1xx_HAL_Driver/Src/stm32f1xx_hal_flash_ex.c **** #if !defined(FLASH_BANK2_END)
 622:./Drivers/STM32F1xx_HAL_Driver/Src/stm32f1xx_hal_flash_ex.c ****   /* Prevent unused argument(s) compilation warning */
 623:./Drivers/STM32F1xx_HAL_Driver/Src/stm32f1xx_hal_flash_ex.c ****   UNUSED(Banks);
 624:./Drivers/STM32F1xx_HAL_Driver/Src/stm32f1xx_hal_flash_ex.c **** #endif /* FLASH_BANK2_END */  
 625:./Drivers/STM32F1xx_HAL_Driver/Src/stm32f1xx_hal_flash_ex.c ****     /* Only bank1 will be erased*/
 626:./Drivers/STM32F1xx_HAL_Driver/Src/stm32f1xx_hal_flash_ex.c ****     SET_BIT(FLASH->CR, FLASH_CR_MER);
 724              		.loc 1 626 5
 725 000e 094B     		ldr	r3, .L43+4
 726 0010 1B69     		ldr	r3, [r3, #16]
 727 0012 084A     		ldr	r2, .L43+4
 728 0014 43F00403 		orr	r3, r3, #4
 729 0018 1361     		str	r3, [r2, #16]
 627:./Drivers/STM32F1xx_HAL_Driver/Src/stm32f1xx_hal_flash_ex.c ****     SET_BIT(FLASH->CR, FLASH_CR_STRT);
 730              		.loc 1 627 5
 731 001a 064B     		ldr	r3, .L43+4
 732 001c 1B69     		ldr	r3, [r3, #16]
 733 001e 054A     		ldr	r2, .L43+4
 734 0020 43F04003 		orr	r3, r3, #64
 735 0024 1361     		str	r3, [r2, #16]
 628:./Drivers/STM32F1xx_HAL_Driver/Src/stm32f1xx_hal_flash_ex.c **** #if defined(FLASH_BANK2_END)
 629:./Drivers/STM32F1xx_HAL_Driver/Src/stm32f1xx_hal_flash_ex.c ****   }
 630:./Drivers/STM32F1xx_HAL_Driver/Src/stm32f1xx_hal_flash_ex.c **** #endif /* FLASH_BANK2_END */
 631:./Drivers/STM32F1xx_HAL_Driver/Src/stm32f1xx_hal_flash_ex.c **** }
 736              		.loc 1 631 1
 737 0026 00BF     		nop
 738 0028 0C37     		adds	r7, r7, #12
 739              		.cfi_def_cfa_offset 4
 740 002a BD46     		mov	sp, r7
 741              		.cfi_def_cfa_register 13
 742              		@ sp needed
 743 002c 80BC     		pop	{r7}
 744              		.cfi_restore 7
ARM GAS  C:\Users\ULTIMA~1\AppData\Local\Temp\ccbIrIj9.s 			page 25


 745              		.cfi_def_cfa_offset 0
 746 002e 7047     		bx	lr
 747              	.L44:
 748              		.align	2
 749              	.L43:
 750 0030 00000000 		.word	pFlash
 751 0034 00200240 		.word	1073881088
 752              		.cfi_endproc
 753              	.LFE71:
 755              		.section	.text.FLASH_OB_EnableWRP,"ax",%progbits
 756              		.align	1
 757              		.syntax unified
 758              		.thumb
 759              		.thumb_func
 761              	FLASH_OB_EnableWRP:
 762              	.LFB72:
 632:./Drivers/STM32F1xx_HAL_Driver/Src/stm32f1xx_hal_flash_ex.c **** 
 633:./Drivers/STM32F1xx_HAL_Driver/Src/stm32f1xx_hal_flash_ex.c **** /**
 634:./Drivers/STM32F1xx_HAL_Driver/Src/stm32f1xx_hal_flash_ex.c ****   * @brief  Enable the write protection of the desired pages
 635:./Drivers/STM32F1xx_HAL_Driver/Src/stm32f1xx_hal_flash_ex.c ****   * @note   An option byte erase is done automatically in this function. 
 636:./Drivers/STM32F1xx_HAL_Driver/Src/stm32f1xx_hal_flash_ex.c ****   * @note   When the memory read protection level is selected (RDP level = 1), 
 637:./Drivers/STM32F1xx_HAL_Driver/Src/stm32f1xx_hal_flash_ex.c ****   *         it is not possible to program or erase the flash page i if
 638:./Drivers/STM32F1xx_HAL_Driver/Src/stm32f1xx_hal_flash_ex.c ****   *         debug features are connected or boot code is executed in RAM, even if nWRPi = 1 
 639:./Drivers/STM32F1xx_HAL_Driver/Src/stm32f1xx_hal_flash_ex.c ****   * 
 640:./Drivers/STM32F1xx_HAL_Driver/Src/stm32f1xx_hal_flash_ex.c ****   * @param  WriteProtectPage specifies the page(s) to be write protected.
 641:./Drivers/STM32F1xx_HAL_Driver/Src/stm32f1xx_hal_flash_ex.c ****   *         The value of this parameter depend on device used within the same series 
 642:./Drivers/STM32F1xx_HAL_Driver/Src/stm32f1xx_hal_flash_ex.c ****   * @retval HAL status 
 643:./Drivers/STM32F1xx_HAL_Driver/Src/stm32f1xx_hal_flash_ex.c ****   */
 644:./Drivers/STM32F1xx_HAL_Driver/Src/stm32f1xx_hal_flash_ex.c **** static HAL_StatusTypeDef FLASH_OB_EnableWRP(uint32_t WriteProtectPage)
 645:./Drivers/STM32F1xx_HAL_Driver/Src/stm32f1xx_hal_flash_ex.c **** {
 763              		.loc 1 645 1
 764              		.cfi_startproc
 765              		@ args = 0, pretend = 0, frame = 24
 766              		@ frame_needed = 1, uses_anonymous_args = 0
 767 0000 80B5     		push	{r7, lr}
 768              		.cfi_def_cfa_offset 8
 769              		.cfi_offset 7, -8
 770              		.cfi_offset 14, -4
 771 0002 86B0     		sub	sp, sp, #24
 772              		.cfi_def_cfa_offset 32
 773 0004 00AF     		add	r7, sp, #0
 774              		.cfi_def_cfa_register 7
 775 0006 7860     		str	r0, [r7, #4]
 646:./Drivers/STM32F1xx_HAL_Driver/Src/stm32f1xx_hal_flash_ex.c ****   HAL_StatusTypeDef status = HAL_OK;
 776              		.loc 1 646 21
 777 0008 0023     		movs	r3, #0
 778 000a FB75     		strb	r3, [r7, #23]
 647:./Drivers/STM32F1xx_HAL_Driver/Src/stm32f1xx_hal_flash_ex.c ****   uint16_t WRP0_Data = 0xFFFF;
 779              		.loc 1 647 12
 780 000c 4FF6FF73 		movw	r3, #65535
 781 0010 BB82     		strh	r3, [r7, #20]	@ movhi
 648:./Drivers/STM32F1xx_HAL_Driver/Src/stm32f1xx_hal_flash_ex.c **** #if defined(FLASH_WRP1_WRP1)
 649:./Drivers/STM32F1xx_HAL_Driver/Src/stm32f1xx_hal_flash_ex.c ****   uint16_t WRP1_Data = 0xFFFF;
 782              		.loc 1 649 12
 783 0012 4FF6FF73 		movw	r3, #65535
 784 0016 7B82     		strh	r3, [r7, #18]	@ movhi
 650:./Drivers/STM32F1xx_HAL_Driver/Src/stm32f1xx_hal_flash_ex.c **** #endif /* FLASH_WRP1_WRP1 */
ARM GAS  C:\Users\ULTIMA~1\AppData\Local\Temp\ccbIrIj9.s 			page 26


 651:./Drivers/STM32F1xx_HAL_Driver/Src/stm32f1xx_hal_flash_ex.c **** #if defined(FLASH_WRP2_WRP2)
 652:./Drivers/STM32F1xx_HAL_Driver/Src/stm32f1xx_hal_flash_ex.c ****   uint16_t WRP2_Data = 0xFFFF;
 785              		.loc 1 652 12
 786 0018 4FF6FF73 		movw	r3, #65535
 787 001c 3B82     		strh	r3, [r7, #16]	@ movhi
 653:./Drivers/STM32F1xx_HAL_Driver/Src/stm32f1xx_hal_flash_ex.c **** #endif /* FLASH_WRP2_WRP2 */
 654:./Drivers/STM32F1xx_HAL_Driver/Src/stm32f1xx_hal_flash_ex.c **** #if defined(FLASH_WRP3_WRP3)
 655:./Drivers/STM32F1xx_HAL_Driver/Src/stm32f1xx_hal_flash_ex.c ****   uint16_t WRP3_Data = 0xFFFF;
 788              		.loc 1 655 12
 789 001e 4FF6FF73 		movw	r3, #65535
 790 0022 FB81     		strh	r3, [r7, #14]	@ movhi
 656:./Drivers/STM32F1xx_HAL_Driver/Src/stm32f1xx_hal_flash_ex.c **** #endif /* FLASH_WRP3_WRP3 */
 657:./Drivers/STM32F1xx_HAL_Driver/Src/stm32f1xx_hal_flash_ex.c ****   
 658:./Drivers/STM32F1xx_HAL_Driver/Src/stm32f1xx_hal_flash_ex.c ****   /* Check the parameters */
 659:./Drivers/STM32F1xx_HAL_Driver/Src/stm32f1xx_hal_flash_ex.c ****   assert_param(IS_OB_WRP(WriteProtectPage));
 660:./Drivers/STM32F1xx_HAL_Driver/Src/stm32f1xx_hal_flash_ex.c ****     
 661:./Drivers/STM32F1xx_HAL_Driver/Src/stm32f1xx_hal_flash_ex.c ****   /* Get current write protected pages and the new pages to be protected ******/
 662:./Drivers/STM32F1xx_HAL_Driver/Src/stm32f1xx_hal_flash_ex.c ****   WriteProtectPage = (uint32_t)(~((~FLASH_OB_GetWRP()) | WriteProtectPage));
 791              		.loc 1 662 37
 792 0024 FFF7FEFF 		bl	FLASH_OB_GetWRP
 793 0028 0246     		mov	r2, r0
 794              		.loc 1 662 33
 795 002a 7B68     		ldr	r3, [r7, #4]
 796 002c DB43     		mvns	r3, r3
 797              		.loc 1 662 20
 798 002e 1340     		ands	r3, r3, r2
 799 0030 7B60     		str	r3, [r7, #4]
 663:./Drivers/STM32F1xx_HAL_Driver/Src/stm32f1xx_hal_flash_ex.c ****   
 664:./Drivers/STM32F1xx_HAL_Driver/Src/stm32f1xx_hal_flash_ex.c **** #if defined(OB_WRP_PAGES0TO15MASK)
 665:./Drivers/STM32F1xx_HAL_Driver/Src/stm32f1xx_hal_flash_ex.c ****   WRP0_Data = (uint16_t)(WriteProtectPage & OB_WRP_PAGES0TO15MASK);
 666:./Drivers/STM32F1xx_HAL_Driver/Src/stm32f1xx_hal_flash_ex.c **** #elif defined(OB_WRP_PAGES0TO31MASK)
 667:./Drivers/STM32F1xx_HAL_Driver/Src/stm32f1xx_hal_flash_ex.c ****   WRP0_Data = (uint16_t)(WriteProtectPage & OB_WRP_PAGES0TO31MASK);
 800              		.loc 1 667 15
 801 0032 7B68     		ldr	r3, [r7, #4]
 802 0034 9BB2     		uxth	r3, r3
 803              		.loc 1 667 13
 804 0036 DBB2     		uxtb	r3, r3
 805 0038 BB82     		strh	r3, [r7, #20]	@ movhi
 668:./Drivers/STM32F1xx_HAL_Driver/Src/stm32f1xx_hal_flash_ex.c **** #endif /* OB_WRP_PAGES0TO31MASK */
 669:./Drivers/STM32F1xx_HAL_Driver/Src/stm32f1xx_hal_flash_ex.c ****   
 670:./Drivers/STM32F1xx_HAL_Driver/Src/stm32f1xx_hal_flash_ex.c **** #if defined(OB_WRP_PAGES16TO31MASK)
 671:./Drivers/STM32F1xx_HAL_Driver/Src/stm32f1xx_hal_flash_ex.c ****   WRP1_Data = (uint16_t)((WriteProtectPage & OB_WRP_PAGES16TO31MASK) >> 8U);
 672:./Drivers/STM32F1xx_HAL_Driver/Src/stm32f1xx_hal_flash_ex.c **** #elif defined(OB_WRP_PAGES32TO63MASK)
 673:./Drivers/STM32F1xx_HAL_Driver/Src/stm32f1xx_hal_flash_ex.c ****   WRP1_Data = (uint16_t)((WriteProtectPage & OB_WRP_PAGES32TO63MASK) >> 8U);
 806              		.loc 1 673 70
 807 003a 7B68     		ldr	r3, [r7, #4]
 808 003c 1B0A     		lsrs	r3, r3, #8
 809              		.loc 1 673 15
 810 003e 9BB2     		uxth	r3, r3
 811              		.loc 1 673 13
 812 0040 DBB2     		uxtb	r3, r3
 813 0042 7B82     		strh	r3, [r7, #18]	@ movhi
 674:./Drivers/STM32F1xx_HAL_Driver/Src/stm32f1xx_hal_flash_ex.c **** #endif /* OB_WRP_PAGES32TO63MASK */
 675:./Drivers/STM32F1xx_HAL_Driver/Src/stm32f1xx_hal_flash_ex.c ****  
 676:./Drivers/STM32F1xx_HAL_Driver/Src/stm32f1xx_hal_flash_ex.c **** #if defined(OB_WRP_PAGES64TO95MASK)
 677:./Drivers/STM32F1xx_HAL_Driver/Src/stm32f1xx_hal_flash_ex.c ****   WRP2_Data = (uint16_t)((WriteProtectPage & OB_WRP_PAGES64TO95MASK) >> 16U);
 814              		.loc 1 677 70
ARM GAS  C:\Users\ULTIMA~1\AppData\Local\Temp\ccbIrIj9.s 			page 27


 815 0044 7B68     		ldr	r3, [r7, #4]
 816 0046 1B0C     		lsrs	r3, r3, #16
 817              		.loc 1 677 15
 818 0048 9BB2     		uxth	r3, r3
 819              		.loc 1 677 13
 820 004a DBB2     		uxtb	r3, r3
 821 004c 3B82     		strh	r3, [r7, #16]	@ movhi
 678:./Drivers/STM32F1xx_HAL_Driver/Src/stm32f1xx_hal_flash_ex.c **** #endif /* OB_WRP_PAGES64TO95MASK */
 679:./Drivers/STM32F1xx_HAL_Driver/Src/stm32f1xx_hal_flash_ex.c **** #if defined(OB_WRP_PAGES32TO47MASK)
 680:./Drivers/STM32F1xx_HAL_Driver/Src/stm32f1xx_hal_flash_ex.c ****   WRP2_Data = (uint16_t)((WriteProtectPage & OB_WRP_PAGES32TO47MASK) >> 16U);
 681:./Drivers/STM32F1xx_HAL_Driver/Src/stm32f1xx_hal_flash_ex.c **** #endif /* OB_WRP_PAGES32TO47MASK */
 682:./Drivers/STM32F1xx_HAL_Driver/Src/stm32f1xx_hal_flash_ex.c **** 
 683:./Drivers/STM32F1xx_HAL_Driver/Src/stm32f1xx_hal_flash_ex.c **** #if defined(OB_WRP_PAGES96TO127MASK)
 684:./Drivers/STM32F1xx_HAL_Driver/Src/stm32f1xx_hal_flash_ex.c ****   WRP3_Data = (uint16_t)((WriteProtectPage & OB_WRP_PAGES96TO127MASK) >> 24U); 
 822              		.loc 1 684 71
 823 004e 7B68     		ldr	r3, [r7, #4]
 824 0050 1B0E     		lsrs	r3, r3, #24
 825              		.loc 1 684 13
 826 0052 FB81     		strh	r3, [r7, #14]	@ movhi
 685:./Drivers/STM32F1xx_HAL_Driver/Src/stm32f1xx_hal_flash_ex.c **** #elif defined(OB_WRP_PAGES48TO255MASK)
 686:./Drivers/STM32F1xx_HAL_Driver/Src/stm32f1xx_hal_flash_ex.c ****   WRP3_Data = (uint16_t)((WriteProtectPage & OB_WRP_PAGES48TO255MASK) >> 24U); 
 687:./Drivers/STM32F1xx_HAL_Driver/Src/stm32f1xx_hal_flash_ex.c **** #elif defined(OB_WRP_PAGES48TO511MASK)
 688:./Drivers/STM32F1xx_HAL_Driver/Src/stm32f1xx_hal_flash_ex.c ****   WRP3_Data = (uint16_t)((WriteProtectPage & OB_WRP_PAGES48TO511MASK) >> 24U); 
 689:./Drivers/STM32F1xx_HAL_Driver/Src/stm32f1xx_hal_flash_ex.c **** #elif defined(OB_WRP_PAGES48TO127MASK)
 690:./Drivers/STM32F1xx_HAL_Driver/Src/stm32f1xx_hal_flash_ex.c ****   WRP3_Data = (uint16_t)((WriteProtectPage & OB_WRP_PAGES48TO127MASK) >> 24U); 
 691:./Drivers/STM32F1xx_HAL_Driver/Src/stm32f1xx_hal_flash_ex.c **** #endif /* OB_WRP_PAGES96TO127MASK */
 692:./Drivers/STM32F1xx_HAL_Driver/Src/stm32f1xx_hal_flash_ex.c ****   
 693:./Drivers/STM32F1xx_HAL_Driver/Src/stm32f1xx_hal_flash_ex.c ****   /* Wait for last operation to be completed */
 694:./Drivers/STM32F1xx_HAL_Driver/Src/stm32f1xx_hal_flash_ex.c ****   status = FLASH_WaitForLastOperation((uint32_t)FLASH_TIMEOUT_VALUE);
 827              		.loc 1 694 12
 828 0054 4CF25030 		movw	r0, #50000
 829 0058 FFF7FEFF 		bl	FLASH_WaitForLastOperation
 830 005c 0346     		mov	r3, r0
 831 005e FB75     		strb	r3, [r7, #23]
 695:./Drivers/STM32F1xx_HAL_Driver/Src/stm32f1xx_hal_flash_ex.c **** 
 696:./Drivers/STM32F1xx_HAL_Driver/Src/stm32f1xx_hal_flash_ex.c ****   if(status == HAL_OK)
 832              		.loc 1 696 5
 833 0060 FB7D     		ldrb	r3, [r7, #23]	@ zero_extendqisi2
 834 0062 002B     		cmp	r3, #0
 835 0064 62D1     		bne	.L46
 697:./Drivers/STM32F1xx_HAL_Driver/Src/stm32f1xx_hal_flash_ex.c ****   { 
 698:./Drivers/STM32F1xx_HAL_Driver/Src/stm32f1xx_hal_flash_ex.c ****     /* Clean the error context */
 699:./Drivers/STM32F1xx_HAL_Driver/Src/stm32f1xx_hal_flash_ex.c ****     pFlash.ErrorCode = HAL_FLASH_ERROR_NONE;
 836              		.loc 1 699 22
 837 0066 344B     		ldr	r3, .L52
 838 0068 0022     		movs	r2, #0
 839 006a DA61     		str	r2, [r3, #28]
 700:./Drivers/STM32F1xx_HAL_Driver/Src/stm32f1xx_hal_flash_ex.c **** 
 701:./Drivers/STM32F1xx_HAL_Driver/Src/stm32f1xx_hal_flash_ex.c ****     /* To be able to write again option byte, need to perform a option byte erase */
 702:./Drivers/STM32F1xx_HAL_Driver/Src/stm32f1xx_hal_flash_ex.c ****     status = HAL_FLASHEx_OBErase();
 840              		.loc 1 702 14
 841 006c FFF7FEFF 		bl	HAL_FLASHEx_OBErase
 842 0070 0346     		mov	r3, r0
 843 0072 FB75     		strb	r3, [r7, #23]
 703:./Drivers/STM32F1xx_HAL_Driver/Src/stm32f1xx_hal_flash_ex.c ****     if (status == HAL_OK)  
 844              		.loc 1 703 8
 845 0074 FB7D     		ldrb	r3, [r7, #23]	@ zero_extendqisi2
ARM GAS  C:\Users\ULTIMA~1\AppData\Local\Temp\ccbIrIj9.s 			page 28


 846 0076 002B     		cmp	r3, #0
 847 0078 58D1     		bne	.L46
 704:./Drivers/STM32F1xx_HAL_Driver/Src/stm32f1xx_hal_flash_ex.c ****     {
 705:./Drivers/STM32F1xx_HAL_Driver/Src/stm32f1xx_hal_flash_ex.c ****       /* Enable write protection */
 706:./Drivers/STM32F1xx_HAL_Driver/Src/stm32f1xx_hal_flash_ex.c ****       SET_BIT(FLASH->CR, FLASH_CR_OPTPG);
 848              		.loc 1 706 7
 849 007a 304B     		ldr	r3, .L52+4
 850 007c 1B69     		ldr	r3, [r3, #16]
 851 007e 2F4A     		ldr	r2, .L52+4
 852 0080 43F01003 		orr	r3, r3, #16
 853 0084 1361     		str	r3, [r2, #16]
 707:./Drivers/STM32F1xx_HAL_Driver/Src/stm32f1xx_hal_flash_ex.c **** 
 708:./Drivers/STM32F1xx_HAL_Driver/Src/stm32f1xx_hal_flash_ex.c **** #if defined(FLASH_WRP0_WRP0)
 709:./Drivers/STM32F1xx_HAL_Driver/Src/stm32f1xx_hal_flash_ex.c ****       if(WRP0_Data != 0xFFU)
 854              		.loc 1 709 9
 855 0086 BB8A     		ldrh	r3, [r7, #20]
 856 0088 FF2B     		cmp	r3, #255
 857 008a 0DD0     		beq	.L47
 710:./Drivers/STM32F1xx_HAL_Driver/Src/stm32f1xx_hal_flash_ex.c ****       {
 711:./Drivers/STM32F1xx_HAL_Driver/Src/stm32f1xx_hal_flash_ex.c ****         OB->WRP0 &= WRP0_Data;
 858              		.loc 1 711 18
 859 008c 2C4B     		ldr	r3, .L52+8
 860 008e 1B89     		ldrh	r3, [r3, #8]	@ movhi
 861 0090 9AB2     		uxth	r2, r3
 862 0092 2B49     		ldr	r1, .L52+8
 863 0094 BB8A     		ldrh	r3, [r7, #20]	@ movhi
 864 0096 1340     		ands	r3, r3, r2
 865 0098 9BB2     		uxth	r3, r3
 866 009a 0B81     		strh	r3, [r1, #8]	@ movhi
 712:./Drivers/STM32F1xx_HAL_Driver/Src/stm32f1xx_hal_flash_ex.c ****         
 713:./Drivers/STM32F1xx_HAL_Driver/Src/stm32f1xx_hal_flash_ex.c ****         /* Wait for last operation to be completed */
 714:./Drivers/STM32F1xx_HAL_Driver/Src/stm32f1xx_hal_flash_ex.c ****         status = FLASH_WaitForLastOperation((uint32_t)FLASH_TIMEOUT_VALUE);
 867              		.loc 1 714 18
 868 009c 4CF25030 		movw	r0, #50000
 869 00a0 FFF7FEFF 		bl	FLASH_WaitForLastOperation
 870 00a4 0346     		mov	r3, r0
 871 00a6 FB75     		strb	r3, [r7, #23]
 872              	.L47:
 715:./Drivers/STM32F1xx_HAL_Driver/Src/stm32f1xx_hal_flash_ex.c ****       }
 716:./Drivers/STM32F1xx_HAL_Driver/Src/stm32f1xx_hal_flash_ex.c **** #endif /* FLASH_WRP0_WRP0 */
 717:./Drivers/STM32F1xx_HAL_Driver/Src/stm32f1xx_hal_flash_ex.c **** 
 718:./Drivers/STM32F1xx_HAL_Driver/Src/stm32f1xx_hal_flash_ex.c **** #if defined(FLASH_WRP1_WRP1)
 719:./Drivers/STM32F1xx_HAL_Driver/Src/stm32f1xx_hal_flash_ex.c ****       if((status == HAL_OK) && (WRP1_Data != 0xFFU))
 873              		.loc 1 719 9
 874 00a8 FB7D     		ldrb	r3, [r7, #23]	@ zero_extendqisi2
 875 00aa 002B     		cmp	r3, #0
 876 00ac 10D1     		bne	.L48
 877              		.loc 1 719 29 discriminator 1
 878 00ae 7B8A     		ldrh	r3, [r7, #18]
 879 00b0 FF2B     		cmp	r3, #255
 880 00b2 0DD0     		beq	.L48
 720:./Drivers/STM32F1xx_HAL_Driver/Src/stm32f1xx_hal_flash_ex.c ****       {
 721:./Drivers/STM32F1xx_HAL_Driver/Src/stm32f1xx_hal_flash_ex.c ****         OB->WRP1 &= WRP1_Data;
 881              		.loc 1 721 18
 882 00b4 224B     		ldr	r3, .L52+8
 883 00b6 5B89     		ldrh	r3, [r3, #10]	@ movhi
 884 00b8 9AB2     		uxth	r2, r3
ARM GAS  C:\Users\ULTIMA~1\AppData\Local\Temp\ccbIrIj9.s 			page 29


 885 00ba 2149     		ldr	r1, .L52+8
 886 00bc 7B8A     		ldrh	r3, [r7, #18]	@ movhi
 887 00be 1340     		ands	r3, r3, r2
 888 00c0 9BB2     		uxth	r3, r3
 889 00c2 4B81     		strh	r3, [r1, #10]	@ movhi
 722:./Drivers/STM32F1xx_HAL_Driver/Src/stm32f1xx_hal_flash_ex.c ****         
 723:./Drivers/STM32F1xx_HAL_Driver/Src/stm32f1xx_hal_flash_ex.c ****         /* Wait for last operation to be completed */
 724:./Drivers/STM32F1xx_HAL_Driver/Src/stm32f1xx_hal_flash_ex.c ****         status = FLASH_WaitForLastOperation((uint32_t)FLASH_TIMEOUT_VALUE);
 890              		.loc 1 724 18
 891 00c4 4CF25030 		movw	r0, #50000
 892 00c8 FFF7FEFF 		bl	FLASH_WaitForLastOperation
 893 00cc 0346     		mov	r3, r0
 894 00ce FB75     		strb	r3, [r7, #23]
 895              	.L48:
 725:./Drivers/STM32F1xx_HAL_Driver/Src/stm32f1xx_hal_flash_ex.c ****       }
 726:./Drivers/STM32F1xx_HAL_Driver/Src/stm32f1xx_hal_flash_ex.c **** #endif /* FLASH_WRP1_WRP1 */
 727:./Drivers/STM32F1xx_HAL_Driver/Src/stm32f1xx_hal_flash_ex.c **** 
 728:./Drivers/STM32F1xx_HAL_Driver/Src/stm32f1xx_hal_flash_ex.c **** #if defined(FLASH_WRP2_WRP2)
 729:./Drivers/STM32F1xx_HAL_Driver/Src/stm32f1xx_hal_flash_ex.c ****       if((status == HAL_OK) && (WRP2_Data != 0xFFU))
 896              		.loc 1 729 9
 897 00d0 FB7D     		ldrb	r3, [r7, #23]	@ zero_extendqisi2
 898 00d2 002B     		cmp	r3, #0
 899 00d4 10D1     		bne	.L49
 900              		.loc 1 729 29 discriminator 1
 901 00d6 3B8A     		ldrh	r3, [r7, #16]
 902 00d8 FF2B     		cmp	r3, #255
 903 00da 0DD0     		beq	.L49
 730:./Drivers/STM32F1xx_HAL_Driver/Src/stm32f1xx_hal_flash_ex.c ****       {
 731:./Drivers/STM32F1xx_HAL_Driver/Src/stm32f1xx_hal_flash_ex.c ****         OB->WRP2 &= WRP2_Data;
 904              		.loc 1 731 18
 905 00dc 184B     		ldr	r3, .L52+8
 906 00de 9B89     		ldrh	r3, [r3, #12]	@ movhi
 907 00e0 9AB2     		uxth	r2, r3
 908 00e2 1749     		ldr	r1, .L52+8
 909 00e4 3B8A     		ldrh	r3, [r7, #16]	@ movhi
 910 00e6 1340     		ands	r3, r3, r2
 911 00e8 9BB2     		uxth	r3, r3
 912 00ea 8B81     		strh	r3, [r1, #12]	@ movhi
 732:./Drivers/STM32F1xx_HAL_Driver/Src/stm32f1xx_hal_flash_ex.c ****         
 733:./Drivers/STM32F1xx_HAL_Driver/Src/stm32f1xx_hal_flash_ex.c ****         /* Wait for last operation to be completed */
 734:./Drivers/STM32F1xx_HAL_Driver/Src/stm32f1xx_hal_flash_ex.c ****         status = FLASH_WaitForLastOperation((uint32_t)FLASH_TIMEOUT_VALUE);
 913              		.loc 1 734 18
 914 00ec 4CF25030 		movw	r0, #50000
 915 00f0 FFF7FEFF 		bl	FLASH_WaitForLastOperation
 916 00f4 0346     		mov	r3, r0
 917 00f6 FB75     		strb	r3, [r7, #23]
 918              	.L49:
 735:./Drivers/STM32F1xx_HAL_Driver/Src/stm32f1xx_hal_flash_ex.c ****       }
 736:./Drivers/STM32F1xx_HAL_Driver/Src/stm32f1xx_hal_flash_ex.c **** #endif /* FLASH_WRP2_WRP2 */
 737:./Drivers/STM32F1xx_HAL_Driver/Src/stm32f1xx_hal_flash_ex.c **** 
 738:./Drivers/STM32F1xx_HAL_Driver/Src/stm32f1xx_hal_flash_ex.c **** #if defined(FLASH_WRP3_WRP3)
 739:./Drivers/STM32F1xx_HAL_Driver/Src/stm32f1xx_hal_flash_ex.c ****       if((status == HAL_OK) && (WRP3_Data != 0xFFU))
 919              		.loc 1 739 9
 920 00f8 FB7D     		ldrb	r3, [r7, #23]	@ zero_extendqisi2
 921 00fa 002B     		cmp	r3, #0
 922 00fc 10D1     		bne	.L50
 923              		.loc 1 739 29 discriminator 1
ARM GAS  C:\Users\ULTIMA~1\AppData\Local\Temp\ccbIrIj9.s 			page 30


 924 00fe FB89     		ldrh	r3, [r7, #14]
 925 0100 FF2B     		cmp	r3, #255
 926 0102 0DD0     		beq	.L50
 740:./Drivers/STM32F1xx_HAL_Driver/Src/stm32f1xx_hal_flash_ex.c ****       {
 741:./Drivers/STM32F1xx_HAL_Driver/Src/stm32f1xx_hal_flash_ex.c ****         OB->WRP3 &= WRP3_Data;
 927              		.loc 1 741 18
 928 0104 0E4B     		ldr	r3, .L52+8
 929 0106 DB89     		ldrh	r3, [r3, #14]	@ movhi
 930 0108 9AB2     		uxth	r2, r3
 931 010a 0D49     		ldr	r1, .L52+8
 932 010c FB89     		ldrh	r3, [r7, #14]	@ movhi
 933 010e 1340     		ands	r3, r3, r2
 934 0110 9BB2     		uxth	r3, r3
 935 0112 CB81     		strh	r3, [r1, #14]	@ movhi
 742:./Drivers/STM32F1xx_HAL_Driver/Src/stm32f1xx_hal_flash_ex.c ****         
 743:./Drivers/STM32F1xx_HAL_Driver/Src/stm32f1xx_hal_flash_ex.c ****         /* Wait for last operation to be completed */
 744:./Drivers/STM32F1xx_HAL_Driver/Src/stm32f1xx_hal_flash_ex.c ****         status = FLASH_WaitForLastOperation((uint32_t)FLASH_TIMEOUT_VALUE);
 936              		.loc 1 744 18
 937 0114 4CF25030 		movw	r0, #50000
 938 0118 FFF7FEFF 		bl	FLASH_WaitForLastOperation
 939 011c 0346     		mov	r3, r0
 940 011e FB75     		strb	r3, [r7, #23]
 941              	.L50:
 745:./Drivers/STM32F1xx_HAL_Driver/Src/stm32f1xx_hal_flash_ex.c ****       }
 746:./Drivers/STM32F1xx_HAL_Driver/Src/stm32f1xx_hal_flash_ex.c **** #endif /* FLASH_WRP3_WRP3 */
 747:./Drivers/STM32F1xx_HAL_Driver/Src/stm32f1xx_hal_flash_ex.c **** 
 748:./Drivers/STM32F1xx_HAL_Driver/Src/stm32f1xx_hal_flash_ex.c ****       /* if the program operation is completed, disable the OPTPG Bit */
 749:./Drivers/STM32F1xx_HAL_Driver/Src/stm32f1xx_hal_flash_ex.c ****       CLEAR_BIT(FLASH->CR, FLASH_CR_OPTPG);
 942              		.loc 1 749 7
 943 0120 064B     		ldr	r3, .L52+4
 944 0122 1B69     		ldr	r3, [r3, #16]
 945 0124 054A     		ldr	r2, .L52+4
 946 0126 23F01003 		bic	r3, r3, #16
 947 012a 1361     		str	r3, [r2, #16]
 948              	.L46:
 750:./Drivers/STM32F1xx_HAL_Driver/Src/stm32f1xx_hal_flash_ex.c ****     }
 751:./Drivers/STM32F1xx_HAL_Driver/Src/stm32f1xx_hal_flash_ex.c ****   }
 752:./Drivers/STM32F1xx_HAL_Driver/Src/stm32f1xx_hal_flash_ex.c ****   
 753:./Drivers/STM32F1xx_HAL_Driver/Src/stm32f1xx_hal_flash_ex.c ****   return status;
 949              		.loc 1 753 10
 950 012c FB7D     		ldrb	r3, [r7, #23]	@ zero_extendqisi2
 754:./Drivers/STM32F1xx_HAL_Driver/Src/stm32f1xx_hal_flash_ex.c **** }
 951              		.loc 1 754 1
 952 012e 1846     		mov	r0, r3
 953 0130 1837     		adds	r7, r7, #24
 954              		.cfi_def_cfa_offset 8
 955 0132 BD46     		mov	sp, r7
 956              		.cfi_def_cfa_register 13
 957              		@ sp needed
 958 0134 80BD     		pop	{r7, pc}
 959              	.L53:
 960 0136 00BF     		.align	2
 961              	.L52:
 962 0138 00000000 		.word	pFlash
 963 013c 00200240 		.word	1073881088
 964 0140 00F8FF1F 		.word	536868864
 965              		.cfi_endproc
ARM GAS  C:\Users\ULTIMA~1\AppData\Local\Temp\ccbIrIj9.s 			page 31


 966              	.LFE72:
 968              		.section	.text.FLASH_OB_DisableWRP,"ax",%progbits
 969              		.align	1
 970              		.syntax unified
 971              		.thumb
 972              		.thumb_func
 974              	FLASH_OB_DisableWRP:
 975              	.LFB73:
 755:./Drivers/STM32F1xx_HAL_Driver/Src/stm32f1xx_hal_flash_ex.c **** 
 756:./Drivers/STM32F1xx_HAL_Driver/Src/stm32f1xx_hal_flash_ex.c **** /**
 757:./Drivers/STM32F1xx_HAL_Driver/Src/stm32f1xx_hal_flash_ex.c ****   * @brief  Disable the write protection of the desired pages
 758:./Drivers/STM32F1xx_HAL_Driver/Src/stm32f1xx_hal_flash_ex.c ****   * @note   An option byte erase is done automatically in this function. 
 759:./Drivers/STM32F1xx_HAL_Driver/Src/stm32f1xx_hal_flash_ex.c ****   * @note   When the memory read protection level is selected (RDP level = 1), 
 760:./Drivers/STM32F1xx_HAL_Driver/Src/stm32f1xx_hal_flash_ex.c ****   *         it is not possible to program or erase the flash page i if   
 761:./Drivers/STM32F1xx_HAL_Driver/Src/stm32f1xx_hal_flash_ex.c ****   *         debug features are connected or boot code is executed in RAM, even if nWRPi = 1 
 762:./Drivers/STM32F1xx_HAL_Driver/Src/stm32f1xx_hal_flash_ex.c ****   * 
 763:./Drivers/STM32F1xx_HAL_Driver/Src/stm32f1xx_hal_flash_ex.c ****   * @param  WriteProtectPage specifies the page(s) to be write unprotected.
 764:./Drivers/STM32F1xx_HAL_Driver/Src/stm32f1xx_hal_flash_ex.c ****   *         The value of this parameter depend on device used within the same series 
 765:./Drivers/STM32F1xx_HAL_Driver/Src/stm32f1xx_hal_flash_ex.c ****   * @retval HAL status 
 766:./Drivers/STM32F1xx_HAL_Driver/Src/stm32f1xx_hal_flash_ex.c ****   */
 767:./Drivers/STM32F1xx_HAL_Driver/Src/stm32f1xx_hal_flash_ex.c **** static HAL_StatusTypeDef FLASH_OB_DisableWRP(uint32_t WriteProtectPage)
 768:./Drivers/STM32F1xx_HAL_Driver/Src/stm32f1xx_hal_flash_ex.c **** {
 976              		.loc 1 768 1
 977              		.cfi_startproc
 978              		@ args = 0, pretend = 0, frame = 24
 979              		@ frame_needed = 1, uses_anonymous_args = 0
 980 0000 80B5     		push	{r7, lr}
 981              		.cfi_def_cfa_offset 8
 982              		.cfi_offset 7, -8
 983              		.cfi_offset 14, -4
 984 0002 86B0     		sub	sp, sp, #24
 985              		.cfi_def_cfa_offset 32
 986 0004 00AF     		add	r7, sp, #0
 987              		.cfi_def_cfa_register 7
 988 0006 7860     		str	r0, [r7, #4]
 769:./Drivers/STM32F1xx_HAL_Driver/Src/stm32f1xx_hal_flash_ex.c ****   HAL_StatusTypeDef status = HAL_OK;
 989              		.loc 1 769 21
 990 0008 0023     		movs	r3, #0
 991 000a FB75     		strb	r3, [r7, #23]
 770:./Drivers/STM32F1xx_HAL_Driver/Src/stm32f1xx_hal_flash_ex.c ****   uint16_t WRP0_Data = 0xFFFF;
 992              		.loc 1 770 12
 993 000c 4FF6FF73 		movw	r3, #65535
 994 0010 BB82     		strh	r3, [r7, #20]	@ movhi
 771:./Drivers/STM32F1xx_HAL_Driver/Src/stm32f1xx_hal_flash_ex.c **** #if defined(FLASH_WRP1_WRP1)
 772:./Drivers/STM32F1xx_HAL_Driver/Src/stm32f1xx_hal_flash_ex.c ****   uint16_t WRP1_Data = 0xFFFF;
 995              		.loc 1 772 12
 996 0012 4FF6FF73 		movw	r3, #65535
 997 0016 7B82     		strh	r3, [r7, #18]	@ movhi
 773:./Drivers/STM32F1xx_HAL_Driver/Src/stm32f1xx_hal_flash_ex.c **** #endif /* FLASH_WRP1_WRP1 */
 774:./Drivers/STM32F1xx_HAL_Driver/Src/stm32f1xx_hal_flash_ex.c **** #if defined(FLASH_WRP2_WRP2)
 775:./Drivers/STM32F1xx_HAL_Driver/Src/stm32f1xx_hal_flash_ex.c ****   uint16_t WRP2_Data = 0xFFFF;
 998              		.loc 1 775 12
 999 0018 4FF6FF73 		movw	r3, #65535
 1000 001c 3B82     		strh	r3, [r7, #16]	@ movhi
 776:./Drivers/STM32F1xx_HAL_Driver/Src/stm32f1xx_hal_flash_ex.c **** #endif /* FLASH_WRP2_WRP2 */
 777:./Drivers/STM32F1xx_HAL_Driver/Src/stm32f1xx_hal_flash_ex.c **** #if defined(FLASH_WRP3_WRP3)
 778:./Drivers/STM32F1xx_HAL_Driver/Src/stm32f1xx_hal_flash_ex.c ****   uint16_t WRP3_Data = 0xFFFF;
ARM GAS  C:\Users\ULTIMA~1\AppData\Local\Temp\ccbIrIj9.s 			page 32


 1001              		.loc 1 778 12
 1002 001e 4FF6FF73 		movw	r3, #65535
 1003 0022 FB81     		strh	r3, [r7, #14]	@ movhi
 779:./Drivers/STM32F1xx_HAL_Driver/Src/stm32f1xx_hal_flash_ex.c **** #endif /* FLASH_WRP3_WRP3 */
 780:./Drivers/STM32F1xx_HAL_Driver/Src/stm32f1xx_hal_flash_ex.c ****   
 781:./Drivers/STM32F1xx_HAL_Driver/Src/stm32f1xx_hal_flash_ex.c ****   /* Check the parameters */
 782:./Drivers/STM32F1xx_HAL_Driver/Src/stm32f1xx_hal_flash_ex.c ****   assert_param(IS_OB_WRP(WriteProtectPage));
 783:./Drivers/STM32F1xx_HAL_Driver/Src/stm32f1xx_hal_flash_ex.c **** 
 784:./Drivers/STM32F1xx_HAL_Driver/Src/stm32f1xx_hal_flash_ex.c ****   /* Get current write protected pages and the new pages to be unprotected ******/
 785:./Drivers/STM32F1xx_HAL_Driver/Src/stm32f1xx_hal_flash_ex.c ****   WriteProtectPage = (FLASH_OB_GetWRP() | WriteProtectPage);
 1004              		.loc 1 785 23
 1005 0024 FFF7FEFF 		bl	FLASH_OB_GetWRP
 1006 0028 0246     		mov	r2, r0
 1007              		.loc 1 785 20
 1008 002a 7B68     		ldr	r3, [r7, #4]
 1009 002c 1343     		orrs	r3, r3, r2
 1010 002e 7B60     		str	r3, [r7, #4]
 786:./Drivers/STM32F1xx_HAL_Driver/Src/stm32f1xx_hal_flash_ex.c **** 
 787:./Drivers/STM32F1xx_HAL_Driver/Src/stm32f1xx_hal_flash_ex.c **** #if defined(OB_WRP_PAGES0TO15MASK)
 788:./Drivers/STM32F1xx_HAL_Driver/Src/stm32f1xx_hal_flash_ex.c ****   WRP0_Data = (uint16_t)(WriteProtectPage & OB_WRP_PAGES0TO15MASK);
 789:./Drivers/STM32F1xx_HAL_Driver/Src/stm32f1xx_hal_flash_ex.c **** #elif defined(OB_WRP_PAGES0TO31MASK)
 790:./Drivers/STM32F1xx_HAL_Driver/Src/stm32f1xx_hal_flash_ex.c ****   WRP0_Data = (uint16_t)(WriteProtectPage & OB_WRP_PAGES0TO31MASK);
 1011              		.loc 1 790 15
 1012 0030 7B68     		ldr	r3, [r7, #4]
 1013 0032 9BB2     		uxth	r3, r3
 1014              		.loc 1 790 13
 1015 0034 DBB2     		uxtb	r3, r3
 1016 0036 BB82     		strh	r3, [r7, #20]	@ movhi
 791:./Drivers/STM32F1xx_HAL_Driver/Src/stm32f1xx_hal_flash_ex.c **** #endif /* OB_WRP_PAGES0TO31MASK */
 792:./Drivers/STM32F1xx_HAL_Driver/Src/stm32f1xx_hal_flash_ex.c ****   
 793:./Drivers/STM32F1xx_HAL_Driver/Src/stm32f1xx_hal_flash_ex.c **** #if defined(OB_WRP_PAGES16TO31MASK)
 794:./Drivers/STM32F1xx_HAL_Driver/Src/stm32f1xx_hal_flash_ex.c ****   WRP1_Data = (uint16_t)((WriteProtectPage & OB_WRP_PAGES16TO31MASK) >> 8U);
 795:./Drivers/STM32F1xx_HAL_Driver/Src/stm32f1xx_hal_flash_ex.c **** #elif defined(OB_WRP_PAGES32TO63MASK)
 796:./Drivers/STM32F1xx_HAL_Driver/Src/stm32f1xx_hal_flash_ex.c ****   WRP1_Data = (uint16_t)((WriteProtectPage & OB_WRP_PAGES32TO63MASK) >> 8U);
 1017              		.loc 1 796 70
 1018 0038 7B68     		ldr	r3, [r7, #4]
 1019 003a 1B0A     		lsrs	r3, r3, #8
 1020              		.loc 1 796 15
 1021 003c 9BB2     		uxth	r3, r3
 1022              		.loc 1 796 13
 1023 003e DBB2     		uxtb	r3, r3
 1024 0040 7B82     		strh	r3, [r7, #18]	@ movhi
 797:./Drivers/STM32F1xx_HAL_Driver/Src/stm32f1xx_hal_flash_ex.c **** #endif /* OB_WRP_PAGES32TO63MASK */
 798:./Drivers/STM32F1xx_HAL_Driver/Src/stm32f1xx_hal_flash_ex.c ****  
 799:./Drivers/STM32F1xx_HAL_Driver/Src/stm32f1xx_hal_flash_ex.c **** #if defined(OB_WRP_PAGES64TO95MASK)
 800:./Drivers/STM32F1xx_HAL_Driver/Src/stm32f1xx_hal_flash_ex.c ****   WRP2_Data = (uint16_t)((WriteProtectPage & OB_WRP_PAGES64TO95MASK) >> 16U);
 1025              		.loc 1 800 70
 1026 0042 7B68     		ldr	r3, [r7, #4]
 1027 0044 1B0C     		lsrs	r3, r3, #16
 1028              		.loc 1 800 15
 1029 0046 9BB2     		uxth	r3, r3
 1030              		.loc 1 800 13
 1031 0048 DBB2     		uxtb	r3, r3
 1032 004a 3B82     		strh	r3, [r7, #16]	@ movhi
 801:./Drivers/STM32F1xx_HAL_Driver/Src/stm32f1xx_hal_flash_ex.c **** #endif /* OB_WRP_PAGES64TO95MASK */
 802:./Drivers/STM32F1xx_HAL_Driver/Src/stm32f1xx_hal_flash_ex.c **** #if defined(OB_WRP_PAGES32TO47MASK)
 803:./Drivers/STM32F1xx_HAL_Driver/Src/stm32f1xx_hal_flash_ex.c ****   WRP2_Data = (uint16_t)((WriteProtectPage & OB_WRP_PAGES32TO47MASK) >> 16U);
ARM GAS  C:\Users\ULTIMA~1\AppData\Local\Temp\ccbIrIj9.s 			page 33


 804:./Drivers/STM32F1xx_HAL_Driver/Src/stm32f1xx_hal_flash_ex.c **** #endif /* OB_WRP_PAGES32TO47MASK */
 805:./Drivers/STM32F1xx_HAL_Driver/Src/stm32f1xx_hal_flash_ex.c **** 
 806:./Drivers/STM32F1xx_HAL_Driver/Src/stm32f1xx_hal_flash_ex.c **** #if defined(OB_WRP_PAGES96TO127MASK)
 807:./Drivers/STM32F1xx_HAL_Driver/Src/stm32f1xx_hal_flash_ex.c ****   WRP3_Data = (uint16_t)((WriteProtectPage & OB_WRP_PAGES96TO127MASK) >> 24U); 
 1033              		.loc 1 807 71
 1034 004c 7B68     		ldr	r3, [r7, #4]
 1035 004e 1B0E     		lsrs	r3, r3, #24
 1036              		.loc 1 807 13
 1037 0050 FB81     		strh	r3, [r7, #14]	@ movhi
 808:./Drivers/STM32F1xx_HAL_Driver/Src/stm32f1xx_hal_flash_ex.c **** #elif defined(OB_WRP_PAGES48TO255MASK)
 809:./Drivers/STM32F1xx_HAL_Driver/Src/stm32f1xx_hal_flash_ex.c ****   WRP3_Data = (uint16_t)((WriteProtectPage & OB_WRP_PAGES48TO255MASK) >> 24U); 
 810:./Drivers/STM32F1xx_HAL_Driver/Src/stm32f1xx_hal_flash_ex.c **** #elif defined(OB_WRP_PAGES48TO511MASK)
 811:./Drivers/STM32F1xx_HAL_Driver/Src/stm32f1xx_hal_flash_ex.c ****   WRP3_Data = (uint16_t)((WriteProtectPage & OB_WRP_PAGES48TO511MASK) >> 24U); 
 812:./Drivers/STM32F1xx_HAL_Driver/Src/stm32f1xx_hal_flash_ex.c **** #elif defined(OB_WRP_PAGES48TO127MASK)
 813:./Drivers/STM32F1xx_HAL_Driver/Src/stm32f1xx_hal_flash_ex.c ****   WRP3_Data = (uint16_t)((WriteProtectPage & OB_WRP_PAGES48TO127MASK) >> 24U); 
 814:./Drivers/STM32F1xx_HAL_Driver/Src/stm32f1xx_hal_flash_ex.c **** #endif /* OB_WRP_PAGES96TO127MASK */
 815:./Drivers/STM32F1xx_HAL_Driver/Src/stm32f1xx_hal_flash_ex.c **** 
 816:./Drivers/STM32F1xx_HAL_Driver/Src/stm32f1xx_hal_flash_ex.c ****     
 817:./Drivers/STM32F1xx_HAL_Driver/Src/stm32f1xx_hal_flash_ex.c ****   /* Wait for last operation to be completed */
 818:./Drivers/STM32F1xx_HAL_Driver/Src/stm32f1xx_hal_flash_ex.c ****   status = FLASH_WaitForLastOperation((uint32_t)FLASH_TIMEOUT_VALUE);
 1038              		.loc 1 818 12
 1039 0052 4CF25030 		movw	r0, #50000
 1040 0056 FFF7FEFF 		bl	FLASH_WaitForLastOperation
 1041 005a 0346     		mov	r3, r0
 1042 005c FB75     		strb	r3, [r7, #23]
 819:./Drivers/STM32F1xx_HAL_Driver/Src/stm32f1xx_hal_flash_ex.c **** 
 820:./Drivers/STM32F1xx_HAL_Driver/Src/stm32f1xx_hal_flash_ex.c ****   if(status == HAL_OK)
 1043              		.loc 1 820 5
 1044 005e FB7D     		ldrb	r3, [r7, #23]	@ zero_extendqisi2
 1045 0060 002B     		cmp	r3, #0
 1046 0062 62D1     		bne	.L55
 821:./Drivers/STM32F1xx_HAL_Driver/Src/stm32f1xx_hal_flash_ex.c ****   { 
 822:./Drivers/STM32F1xx_HAL_Driver/Src/stm32f1xx_hal_flash_ex.c ****     /* Clean the error context */
 823:./Drivers/STM32F1xx_HAL_Driver/Src/stm32f1xx_hal_flash_ex.c ****     pFlash.ErrorCode = HAL_FLASH_ERROR_NONE;
 1047              		.loc 1 823 22
 1048 0064 334B     		ldr	r3, .L61
 1049 0066 0022     		movs	r2, #0
 1050 0068 DA61     		str	r2, [r3, #28]
 824:./Drivers/STM32F1xx_HAL_Driver/Src/stm32f1xx_hal_flash_ex.c **** 
 825:./Drivers/STM32F1xx_HAL_Driver/Src/stm32f1xx_hal_flash_ex.c ****     /* To be able to write again option byte, need to perform a option byte erase */
 826:./Drivers/STM32F1xx_HAL_Driver/Src/stm32f1xx_hal_flash_ex.c ****     status = HAL_FLASHEx_OBErase();
 1051              		.loc 1 826 14
 1052 006a FFF7FEFF 		bl	HAL_FLASHEx_OBErase
 1053 006e 0346     		mov	r3, r0
 1054 0070 FB75     		strb	r3, [r7, #23]
 827:./Drivers/STM32F1xx_HAL_Driver/Src/stm32f1xx_hal_flash_ex.c ****     if (status == HAL_OK)  
 1055              		.loc 1 827 8
 1056 0072 FB7D     		ldrb	r3, [r7, #23]	@ zero_extendqisi2
 1057 0074 002B     		cmp	r3, #0
 1058 0076 58D1     		bne	.L55
 828:./Drivers/STM32F1xx_HAL_Driver/Src/stm32f1xx_hal_flash_ex.c ****     {
 829:./Drivers/STM32F1xx_HAL_Driver/Src/stm32f1xx_hal_flash_ex.c ****       SET_BIT(FLASH->CR, FLASH_CR_OPTPG);
 1059              		.loc 1 829 7
 1060 0078 2F4B     		ldr	r3, .L61+4
 1061 007a 1B69     		ldr	r3, [r3, #16]
 1062 007c 2E4A     		ldr	r2, .L61+4
 1063 007e 43F01003 		orr	r3, r3, #16
ARM GAS  C:\Users\ULTIMA~1\AppData\Local\Temp\ccbIrIj9.s 			page 34


 1064 0082 1361     		str	r3, [r2, #16]
 830:./Drivers/STM32F1xx_HAL_Driver/Src/stm32f1xx_hal_flash_ex.c **** 
 831:./Drivers/STM32F1xx_HAL_Driver/Src/stm32f1xx_hal_flash_ex.c **** #if defined(FLASH_WRP0_WRP0)
 832:./Drivers/STM32F1xx_HAL_Driver/Src/stm32f1xx_hal_flash_ex.c ****       if(WRP0_Data != 0xFFU)
 1065              		.loc 1 832 9
 1066 0084 BB8A     		ldrh	r3, [r7, #20]
 1067 0086 FF2B     		cmp	r3, #255
 1068 0088 0DD0     		beq	.L56
 833:./Drivers/STM32F1xx_HAL_Driver/Src/stm32f1xx_hal_flash_ex.c ****       {
 834:./Drivers/STM32F1xx_HAL_Driver/Src/stm32f1xx_hal_flash_ex.c ****         OB->WRP0 |= WRP0_Data;
 1069              		.loc 1 834 18
 1070 008a 2C4B     		ldr	r3, .L61+8
 1071 008c 1B89     		ldrh	r3, [r3, #8]	@ movhi
 1072 008e 9AB2     		uxth	r2, r3
 1073 0090 2A49     		ldr	r1, .L61+8
 1074 0092 BB8A     		ldrh	r3, [r7, #20]	@ movhi
 1075 0094 1343     		orrs	r3, r3, r2
 1076 0096 9BB2     		uxth	r3, r3
 1077 0098 0B81     		strh	r3, [r1, #8]	@ movhi
 835:./Drivers/STM32F1xx_HAL_Driver/Src/stm32f1xx_hal_flash_ex.c ****         
 836:./Drivers/STM32F1xx_HAL_Driver/Src/stm32f1xx_hal_flash_ex.c ****         /* Wait for last operation to be completed */
 837:./Drivers/STM32F1xx_HAL_Driver/Src/stm32f1xx_hal_flash_ex.c ****         status = FLASH_WaitForLastOperation((uint32_t)FLASH_TIMEOUT_VALUE);
 1078              		.loc 1 837 18
 1079 009a 4CF25030 		movw	r0, #50000
 1080 009e FFF7FEFF 		bl	FLASH_WaitForLastOperation
 1081 00a2 0346     		mov	r3, r0
 1082 00a4 FB75     		strb	r3, [r7, #23]
 1083              	.L56:
 838:./Drivers/STM32F1xx_HAL_Driver/Src/stm32f1xx_hal_flash_ex.c ****       }
 839:./Drivers/STM32F1xx_HAL_Driver/Src/stm32f1xx_hal_flash_ex.c **** #endif /* FLASH_WRP0_WRP0 */
 840:./Drivers/STM32F1xx_HAL_Driver/Src/stm32f1xx_hal_flash_ex.c **** 
 841:./Drivers/STM32F1xx_HAL_Driver/Src/stm32f1xx_hal_flash_ex.c **** #if defined(FLASH_WRP1_WRP1)
 842:./Drivers/STM32F1xx_HAL_Driver/Src/stm32f1xx_hal_flash_ex.c ****       if((status == HAL_OK) && (WRP1_Data != 0xFFU))
 1084              		.loc 1 842 9
 1085 00a6 FB7D     		ldrb	r3, [r7, #23]	@ zero_extendqisi2
 1086 00a8 002B     		cmp	r3, #0
 1087 00aa 10D1     		bne	.L57
 1088              		.loc 1 842 29 discriminator 1
 1089 00ac 7B8A     		ldrh	r3, [r7, #18]
 1090 00ae FF2B     		cmp	r3, #255
 1091 00b0 0DD0     		beq	.L57
 843:./Drivers/STM32F1xx_HAL_Driver/Src/stm32f1xx_hal_flash_ex.c ****       {
 844:./Drivers/STM32F1xx_HAL_Driver/Src/stm32f1xx_hal_flash_ex.c ****         OB->WRP1 |= WRP1_Data;
 1092              		.loc 1 844 18
 1093 00b2 224B     		ldr	r3, .L61+8
 1094 00b4 5B89     		ldrh	r3, [r3, #10]	@ movhi
 1095 00b6 9AB2     		uxth	r2, r3
 1096 00b8 2049     		ldr	r1, .L61+8
 1097 00ba 7B8A     		ldrh	r3, [r7, #18]	@ movhi
 1098 00bc 1343     		orrs	r3, r3, r2
 1099 00be 9BB2     		uxth	r3, r3
 1100 00c0 4B81     		strh	r3, [r1, #10]	@ movhi
 845:./Drivers/STM32F1xx_HAL_Driver/Src/stm32f1xx_hal_flash_ex.c ****         
 846:./Drivers/STM32F1xx_HAL_Driver/Src/stm32f1xx_hal_flash_ex.c ****         /* Wait for last operation to be completed */
 847:./Drivers/STM32F1xx_HAL_Driver/Src/stm32f1xx_hal_flash_ex.c ****         status = FLASH_WaitForLastOperation((uint32_t)FLASH_TIMEOUT_VALUE);
 1101              		.loc 1 847 18
 1102 00c2 4CF25030 		movw	r0, #50000
ARM GAS  C:\Users\ULTIMA~1\AppData\Local\Temp\ccbIrIj9.s 			page 35


 1103 00c6 FFF7FEFF 		bl	FLASH_WaitForLastOperation
 1104 00ca 0346     		mov	r3, r0
 1105 00cc FB75     		strb	r3, [r7, #23]
 1106              	.L57:
 848:./Drivers/STM32F1xx_HAL_Driver/Src/stm32f1xx_hal_flash_ex.c ****       }
 849:./Drivers/STM32F1xx_HAL_Driver/Src/stm32f1xx_hal_flash_ex.c **** #endif /* FLASH_WRP1_WRP1 */
 850:./Drivers/STM32F1xx_HAL_Driver/Src/stm32f1xx_hal_flash_ex.c **** 
 851:./Drivers/STM32F1xx_HAL_Driver/Src/stm32f1xx_hal_flash_ex.c **** #if defined(FLASH_WRP2_WRP2)
 852:./Drivers/STM32F1xx_HAL_Driver/Src/stm32f1xx_hal_flash_ex.c ****       if((status == HAL_OK) && (WRP2_Data != 0xFFU))
 1107              		.loc 1 852 9
 1108 00ce FB7D     		ldrb	r3, [r7, #23]	@ zero_extendqisi2
 1109 00d0 002B     		cmp	r3, #0
 1110 00d2 10D1     		bne	.L58
 1111              		.loc 1 852 29 discriminator 1
 1112 00d4 3B8A     		ldrh	r3, [r7, #16]
 1113 00d6 FF2B     		cmp	r3, #255
 1114 00d8 0DD0     		beq	.L58
 853:./Drivers/STM32F1xx_HAL_Driver/Src/stm32f1xx_hal_flash_ex.c ****       {
 854:./Drivers/STM32F1xx_HAL_Driver/Src/stm32f1xx_hal_flash_ex.c ****         OB->WRP2 |= WRP2_Data;
 1115              		.loc 1 854 18
 1116 00da 184B     		ldr	r3, .L61+8
 1117 00dc 9B89     		ldrh	r3, [r3, #12]	@ movhi
 1118 00de 9AB2     		uxth	r2, r3
 1119 00e0 1649     		ldr	r1, .L61+8
 1120 00e2 3B8A     		ldrh	r3, [r7, #16]	@ movhi
 1121 00e4 1343     		orrs	r3, r3, r2
 1122 00e6 9BB2     		uxth	r3, r3
 1123 00e8 8B81     		strh	r3, [r1, #12]	@ movhi
 855:./Drivers/STM32F1xx_HAL_Driver/Src/stm32f1xx_hal_flash_ex.c ****         
 856:./Drivers/STM32F1xx_HAL_Driver/Src/stm32f1xx_hal_flash_ex.c ****         /* Wait for last operation to be completed */
 857:./Drivers/STM32F1xx_HAL_Driver/Src/stm32f1xx_hal_flash_ex.c ****         status = FLASH_WaitForLastOperation((uint32_t)FLASH_TIMEOUT_VALUE);
 1124              		.loc 1 857 18
 1125 00ea 4CF25030 		movw	r0, #50000
 1126 00ee FFF7FEFF 		bl	FLASH_WaitForLastOperation
 1127 00f2 0346     		mov	r3, r0
 1128 00f4 FB75     		strb	r3, [r7, #23]
 1129              	.L58:
 858:./Drivers/STM32F1xx_HAL_Driver/Src/stm32f1xx_hal_flash_ex.c ****       }
 859:./Drivers/STM32F1xx_HAL_Driver/Src/stm32f1xx_hal_flash_ex.c **** #endif /* FLASH_WRP2_WRP2 */
 860:./Drivers/STM32F1xx_HAL_Driver/Src/stm32f1xx_hal_flash_ex.c **** 
 861:./Drivers/STM32F1xx_HAL_Driver/Src/stm32f1xx_hal_flash_ex.c **** #if defined(FLASH_WRP3_WRP3)
 862:./Drivers/STM32F1xx_HAL_Driver/Src/stm32f1xx_hal_flash_ex.c ****       if((status == HAL_OK) && (WRP3_Data != 0xFFU))
 1130              		.loc 1 862 9
 1131 00f6 FB7D     		ldrb	r3, [r7, #23]	@ zero_extendqisi2
 1132 00f8 002B     		cmp	r3, #0
 1133 00fa 10D1     		bne	.L59
 1134              		.loc 1 862 29 discriminator 1
 1135 00fc FB89     		ldrh	r3, [r7, #14]
 1136 00fe FF2B     		cmp	r3, #255
 1137 0100 0DD0     		beq	.L59
 863:./Drivers/STM32F1xx_HAL_Driver/Src/stm32f1xx_hal_flash_ex.c ****       {
 864:./Drivers/STM32F1xx_HAL_Driver/Src/stm32f1xx_hal_flash_ex.c ****         OB->WRP3 |= WRP3_Data;
 1138              		.loc 1 864 18
 1139 0102 0E4B     		ldr	r3, .L61+8
 1140 0104 DB89     		ldrh	r3, [r3, #14]	@ movhi
 1141 0106 9AB2     		uxth	r2, r3
 1142 0108 0C49     		ldr	r1, .L61+8
ARM GAS  C:\Users\ULTIMA~1\AppData\Local\Temp\ccbIrIj9.s 			page 36


 1143 010a FB89     		ldrh	r3, [r7, #14]	@ movhi
 1144 010c 1343     		orrs	r3, r3, r2
 1145 010e 9BB2     		uxth	r3, r3
 1146 0110 CB81     		strh	r3, [r1, #14]	@ movhi
 865:./Drivers/STM32F1xx_HAL_Driver/Src/stm32f1xx_hal_flash_ex.c ****         
 866:./Drivers/STM32F1xx_HAL_Driver/Src/stm32f1xx_hal_flash_ex.c ****         /* Wait for last operation to be completed */
 867:./Drivers/STM32F1xx_HAL_Driver/Src/stm32f1xx_hal_flash_ex.c ****         status = FLASH_WaitForLastOperation((uint32_t)FLASH_TIMEOUT_VALUE);
 1147              		.loc 1 867 18
 1148 0112 4CF25030 		movw	r0, #50000
 1149 0116 FFF7FEFF 		bl	FLASH_WaitForLastOperation
 1150 011a 0346     		mov	r3, r0
 1151 011c FB75     		strb	r3, [r7, #23]
 1152              	.L59:
 868:./Drivers/STM32F1xx_HAL_Driver/Src/stm32f1xx_hal_flash_ex.c ****       }
 869:./Drivers/STM32F1xx_HAL_Driver/Src/stm32f1xx_hal_flash_ex.c **** #endif /* FLASH_WRP3_WRP3 */
 870:./Drivers/STM32F1xx_HAL_Driver/Src/stm32f1xx_hal_flash_ex.c **** 
 871:./Drivers/STM32F1xx_HAL_Driver/Src/stm32f1xx_hal_flash_ex.c ****       /* if the program operation is completed, disable the OPTPG Bit */
 872:./Drivers/STM32F1xx_HAL_Driver/Src/stm32f1xx_hal_flash_ex.c ****       CLEAR_BIT(FLASH->CR, FLASH_CR_OPTPG);
 1153              		.loc 1 872 7
 1154 011e 064B     		ldr	r3, .L61+4
 1155 0120 1B69     		ldr	r3, [r3, #16]
 1156 0122 054A     		ldr	r2, .L61+4
 1157 0124 23F01003 		bic	r3, r3, #16
 1158 0128 1361     		str	r3, [r2, #16]
 1159              	.L55:
 873:./Drivers/STM32F1xx_HAL_Driver/Src/stm32f1xx_hal_flash_ex.c ****     }
 874:./Drivers/STM32F1xx_HAL_Driver/Src/stm32f1xx_hal_flash_ex.c ****   }
 875:./Drivers/STM32F1xx_HAL_Driver/Src/stm32f1xx_hal_flash_ex.c ****   return status;
 1160              		.loc 1 875 10
 1161 012a FB7D     		ldrb	r3, [r7, #23]	@ zero_extendqisi2
 876:./Drivers/STM32F1xx_HAL_Driver/Src/stm32f1xx_hal_flash_ex.c **** }
 1162              		.loc 1 876 1
 1163 012c 1846     		mov	r0, r3
 1164 012e 1837     		adds	r7, r7, #24
 1165              		.cfi_def_cfa_offset 8
 1166 0130 BD46     		mov	sp, r7
 1167              		.cfi_def_cfa_register 13
 1168              		@ sp needed
 1169 0132 80BD     		pop	{r7, pc}
 1170              	.L62:
 1171              		.align	2
 1172              	.L61:
 1173 0134 00000000 		.word	pFlash
 1174 0138 00200240 		.word	1073881088
 1175 013c 00F8FF1F 		.word	536868864
 1176              		.cfi_endproc
 1177              	.LFE73:
 1179              		.section	.text.FLASH_OB_RDP_LevelConfig,"ax",%progbits
 1180              		.align	1
 1181              		.syntax unified
 1182              		.thumb
 1183              		.thumb_func
 1185              	FLASH_OB_RDP_LevelConfig:
 1186              	.LFB74:
 877:./Drivers/STM32F1xx_HAL_Driver/Src/stm32f1xx_hal_flash_ex.c **** 
 878:./Drivers/STM32F1xx_HAL_Driver/Src/stm32f1xx_hal_flash_ex.c **** /**
 879:./Drivers/STM32F1xx_HAL_Driver/Src/stm32f1xx_hal_flash_ex.c ****   * @brief  Set the read protection level.
ARM GAS  C:\Users\ULTIMA~1\AppData\Local\Temp\ccbIrIj9.s 			page 37


 880:./Drivers/STM32F1xx_HAL_Driver/Src/stm32f1xx_hal_flash_ex.c ****   * @param  ReadProtectLevel specifies the read protection level.
 881:./Drivers/STM32F1xx_HAL_Driver/Src/stm32f1xx_hal_flash_ex.c ****   *         This parameter can be one of the following values:
 882:./Drivers/STM32F1xx_HAL_Driver/Src/stm32f1xx_hal_flash_ex.c ****   *            @arg @ref OB_RDP_LEVEL_0 No protection
 883:./Drivers/STM32F1xx_HAL_Driver/Src/stm32f1xx_hal_flash_ex.c ****   *            @arg @ref OB_RDP_LEVEL_1 Read protection of the memory
 884:./Drivers/STM32F1xx_HAL_Driver/Src/stm32f1xx_hal_flash_ex.c ****   * @retval HAL status
 885:./Drivers/STM32F1xx_HAL_Driver/Src/stm32f1xx_hal_flash_ex.c ****   */
 886:./Drivers/STM32F1xx_HAL_Driver/Src/stm32f1xx_hal_flash_ex.c **** static HAL_StatusTypeDef FLASH_OB_RDP_LevelConfig(uint8_t ReadProtectLevel)
 887:./Drivers/STM32F1xx_HAL_Driver/Src/stm32f1xx_hal_flash_ex.c **** {
 1187              		.loc 1 887 1
 1188              		.cfi_startproc
 1189              		@ args = 0, pretend = 0, frame = 16
 1190              		@ frame_needed = 1, uses_anonymous_args = 0
 1191 0000 80B5     		push	{r7, lr}
 1192              		.cfi_def_cfa_offset 8
 1193              		.cfi_offset 7, -8
 1194              		.cfi_offset 14, -4
 1195 0002 84B0     		sub	sp, sp, #16
 1196              		.cfi_def_cfa_offset 24
 1197 0004 00AF     		add	r7, sp, #0
 1198              		.cfi_def_cfa_register 7
 1199 0006 0346     		mov	r3, r0
 1200 0008 FB71     		strb	r3, [r7, #7]
 888:./Drivers/STM32F1xx_HAL_Driver/Src/stm32f1xx_hal_flash_ex.c ****   HAL_StatusTypeDef status = HAL_OK;
 1201              		.loc 1 888 21
 1202 000a 0023     		movs	r3, #0
 1203 000c FB73     		strb	r3, [r7, #15]
 889:./Drivers/STM32F1xx_HAL_Driver/Src/stm32f1xx_hal_flash_ex.c ****   
 890:./Drivers/STM32F1xx_HAL_Driver/Src/stm32f1xx_hal_flash_ex.c ****   /* Check the parameters */
 891:./Drivers/STM32F1xx_HAL_Driver/Src/stm32f1xx_hal_flash_ex.c ****   assert_param(IS_OB_RDP_LEVEL(ReadProtectLevel));
 892:./Drivers/STM32F1xx_HAL_Driver/Src/stm32f1xx_hal_flash_ex.c ****   
 893:./Drivers/STM32F1xx_HAL_Driver/Src/stm32f1xx_hal_flash_ex.c ****   /* Wait for last operation to be completed */
 894:./Drivers/STM32F1xx_HAL_Driver/Src/stm32f1xx_hal_flash_ex.c ****   status = FLASH_WaitForLastOperation((uint32_t)FLASH_TIMEOUT_VALUE);
 1204              		.loc 1 894 12
 1205 000e 4CF25030 		movw	r0, #50000
 1206 0012 FFF7FEFF 		bl	FLASH_WaitForLastOperation
 1207 0016 0346     		mov	r3, r0
 1208 0018 FB73     		strb	r3, [r7, #15]
 895:./Drivers/STM32F1xx_HAL_Driver/Src/stm32f1xx_hal_flash_ex.c ****   
 896:./Drivers/STM32F1xx_HAL_Driver/Src/stm32f1xx_hal_flash_ex.c ****   if(status == HAL_OK)
 1209              		.loc 1 896 5
 1210 001a FB7B     		ldrb	r3, [r7, #15]	@ zero_extendqisi2
 1211 001c 002B     		cmp	r3, #0
 1212 001e 33D1     		bne	.L64
 897:./Drivers/STM32F1xx_HAL_Driver/Src/stm32f1xx_hal_flash_ex.c ****   { 
 898:./Drivers/STM32F1xx_HAL_Driver/Src/stm32f1xx_hal_flash_ex.c ****     /* Clean the error context */
 899:./Drivers/STM32F1xx_HAL_Driver/Src/stm32f1xx_hal_flash_ex.c ****     pFlash.ErrorCode = HAL_FLASH_ERROR_NONE;
 1213              		.loc 1 899 22
 1214 0020 1C4B     		ldr	r3, .L66
 1215 0022 0022     		movs	r2, #0
 1216 0024 DA61     		str	r2, [r3, #28]
 900:./Drivers/STM32F1xx_HAL_Driver/Src/stm32f1xx_hal_flash_ex.c ****     
 901:./Drivers/STM32F1xx_HAL_Driver/Src/stm32f1xx_hal_flash_ex.c ****     /* If the previous operation is completed, proceed to erase the option bytes */
 902:./Drivers/STM32F1xx_HAL_Driver/Src/stm32f1xx_hal_flash_ex.c ****     SET_BIT(FLASH->CR, FLASH_CR_OPTER);
 1217              		.loc 1 902 5
 1218 0026 1C4B     		ldr	r3, .L66+4
 1219 0028 1B69     		ldr	r3, [r3, #16]
 1220 002a 1B4A     		ldr	r2, .L66+4
ARM GAS  C:\Users\ULTIMA~1\AppData\Local\Temp\ccbIrIj9.s 			page 38


 1221 002c 43F02003 		orr	r3, r3, #32
 1222 0030 1361     		str	r3, [r2, #16]
 903:./Drivers/STM32F1xx_HAL_Driver/Src/stm32f1xx_hal_flash_ex.c ****     SET_BIT(FLASH->CR, FLASH_CR_STRT);
 1223              		.loc 1 903 5
 1224 0032 194B     		ldr	r3, .L66+4
 1225 0034 1B69     		ldr	r3, [r3, #16]
 1226 0036 184A     		ldr	r2, .L66+4
 1227 0038 43F04003 		orr	r3, r3, #64
 1228 003c 1361     		str	r3, [r2, #16]
 904:./Drivers/STM32F1xx_HAL_Driver/Src/stm32f1xx_hal_flash_ex.c **** 
 905:./Drivers/STM32F1xx_HAL_Driver/Src/stm32f1xx_hal_flash_ex.c ****     /* Wait for last operation to be completed */
 906:./Drivers/STM32F1xx_HAL_Driver/Src/stm32f1xx_hal_flash_ex.c ****     status = FLASH_WaitForLastOperation((uint32_t)FLASH_TIMEOUT_VALUE);
 1229              		.loc 1 906 14
 1230 003e 4CF25030 		movw	r0, #50000
 1231 0042 FFF7FEFF 		bl	FLASH_WaitForLastOperation
 1232 0046 0346     		mov	r3, r0
 1233 0048 FB73     		strb	r3, [r7, #15]
 907:./Drivers/STM32F1xx_HAL_Driver/Src/stm32f1xx_hal_flash_ex.c **** 
 908:./Drivers/STM32F1xx_HAL_Driver/Src/stm32f1xx_hal_flash_ex.c ****     /* If the erase operation is completed, disable the OPTER Bit */
 909:./Drivers/STM32F1xx_HAL_Driver/Src/stm32f1xx_hal_flash_ex.c ****     CLEAR_BIT(FLASH->CR, FLASH_CR_OPTER);
 1234              		.loc 1 909 5
 1235 004a 134B     		ldr	r3, .L66+4
 1236 004c 1B69     		ldr	r3, [r3, #16]
 1237 004e 124A     		ldr	r2, .L66+4
 1238 0050 23F02003 		bic	r3, r3, #32
 1239 0054 1361     		str	r3, [r2, #16]
 910:./Drivers/STM32F1xx_HAL_Driver/Src/stm32f1xx_hal_flash_ex.c **** 
 911:./Drivers/STM32F1xx_HAL_Driver/Src/stm32f1xx_hal_flash_ex.c ****     if(status == HAL_OK)
 1240              		.loc 1 911 7
 1241 0056 FB7B     		ldrb	r3, [r7, #15]	@ zero_extendqisi2
 1242 0058 002B     		cmp	r3, #0
 1243 005a 15D1     		bne	.L64
 912:./Drivers/STM32F1xx_HAL_Driver/Src/stm32f1xx_hal_flash_ex.c ****     {
 913:./Drivers/STM32F1xx_HAL_Driver/Src/stm32f1xx_hal_flash_ex.c ****       /* Enable the Option Bytes Programming operation */
 914:./Drivers/STM32F1xx_HAL_Driver/Src/stm32f1xx_hal_flash_ex.c ****       SET_BIT(FLASH->CR, FLASH_CR_OPTPG);
 1244              		.loc 1 914 7
 1245 005c 0E4B     		ldr	r3, .L66+4
 1246 005e 1B69     		ldr	r3, [r3, #16]
 1247 0060 0D4A     		ldr	r2, .L66+4
 1248 0062 43F01003 		orr	r3, r3, #16
 1249 0066 1361     		str	r3, [r2, #16]
 915:./Drivers/STM32F1xx_HAL_Driver/Src/stm32f1xx_hal_flash_ex.c ****       
 916:./Drivers/STM32F1xx_HAL_Driver/Src/stm32f1xx_hal_flash_ex.c ****       WRITE_REG(OB->RDP, ReadProtectLevel);
 1250              		.loc 1 916 7
 1251 0068 0C4B     		ldr	r3, .L66+8
 1252 006a FA79     		ldrb	r2, [r7, #7]	@ zero_extendqisi2
 1253 006c 92B2     		uxth	r2, r2
 1254 006e 1A80     		strh	r2, [r3]	@ movhi
 917:./Drivers/STM32F1xx_HAL_Driver/Src/stm32f1xx_hal_flash_ex.c ****       
 918:./Drivers/STM32F1xx_HAL_Driver/Src/stm32f1xx_hal_flash_ex.c ****       /* Wait for last operation to be completed */
 919:./Drivers/STM32F1xx_HAL_Driver/Src/stm32f1xx_hal_flash_ex.c ****       status = FLASH_WaitForLastOperation((uint32_t)FLASH_TIMEOUT_VALUE); 
 1255              		.loc 1 919 16
 1256 0070 4CF25030 		movw	r0, #50000
 1257 0074 FFF7FEFF 		bl	FLASH_WaitForLastOperation
 1258 0078 0346     		mov	r3, r0
 1259 007a FB73     		strb	r3, [r7, #15]
 920:./Drivers/STM32F1xx_HAL_Driver/Src/stm32f1xx_hal_flash_ex.c ****       
ARM GAS  C:\Users\ULTIMA~1\AppData\Local\Temp\ccbIrIj9.s 			page 39


 921:./Drivers/STM32F1xx_HAL_Driver/Src/stm32f1xx_hal_flash_ex.c ****       /* if the program operation is completed, disable the OPTPG Bit */
 922:./Drivers/STM32F1xx_HAL_Driver/Src/stm32f1xx_hal_flash_ex.c ****       CLEAR_BIT(FLASH->CR, FLASH_CR_OPTPG);
 1260              		.loc 1 922 7
 1261 007c 064B     		ldr	r3, .L66+4
 1262 007e 1B69     		ldr	r3, [r3, #16]
 1263 0080 054A     		ldr	r2, .L66+4
 1264 0082 23F01003 		bic	r3, r3, #16
 1265 0086 1361     		str	r3, [r2, #16]
 1266              	.L64:
 923:./Drivers/STM32F1xx_HAL_Driver/Src/stm32f1xx_hal_flash_ex.c ****     }
 924:./Drivers/STM32F1xx_HAL_Driver/Src/stm32f1xx_hal_flash_ex.c ****   }
 925:./Drivers/STM32F1xx_HAL_Driver/Src/stm32f1xx_hal_flash_ex.c ****   
 926:./Drivers/STM32F1xx_HAL_Driver/Src/stm32f1xx_hal_flash_ex.c ****   return status;
 1267              		.loc 1 926 10
 1268 0088 FB7B     		ldrb	r3, [r7, #15]	@ zero_extendqisi2
 927:./Drivers/STM32F1xx_HAL_Driver/Src/stm32f1xx_hal_flash_ex.c **** }
 1269              		.loc 1 927 1
 1270 008a 1846     		mov	r0, r3
 1271 008c 1037     		adds	r7, r7, #16
 1272              		.cfi_def_cfa_offset 8
 1273 008e BD46     		mov	sp, r7
 1274              		.cfi_def_cfa_register 13
 1275              		@ sp needed
 1276 0090 80BD     		pop	{r7, pc}
 1277              	.L67:
 1278 0092 00BF     		.align	2
 1279              	.L66:
 1280 0094 00000000 		.word	pFlash
 1281 0098 00200240 		.word	1073881088
 1282 009c 00F8FF1F 		.word	536868864
 1283              		.cfi_endproc
 1284              	.LFE74:
 1286              		.section	.text.FLASH_OB_UserConfig,"ax",%progbits
 1287              		.align	1
 1288              		.syntax unified
 1289              		.thumb
 1290              		.thumb_func
 1292              	FLASH_OB_UserConfig:
 1293              	.LFB75:
 928:./Drivers/STM32F1xx_HAL_Driver/Src/stm32f1xx_hal_flash_ex.c **** 
 929:./Drivers/STM32F1xx_HAL_Driver/Src/stm32f1xx_hal_flash_ex.c **** /**
 930:./Drivers/STM32F1xx_HAL_Driver/Src/stm32f1xx_hal_flash_ex.c ****   * @brief  Program the FLASH User Option Byte.    
 931:./Drivers/STM32F1xx_HAL_Driver/Src/stm32f1xx_hal_flash_ex.c ****   * @note   Programming of the OB should be performed only after an erase (otherwise PGERR occurs)
 932:./Drivers/STM32F1xx_HAL_Driver/Src/stm32f1xx_hal_flash_ex.c ****   * @param  UserConfig The FLASH User Option Bytes values FLASH_OBR_IWDG_SW(Bit2), 
 933:./Drivers/STM32F1xx_HAL_Driver/Src/stm32f1xx_hal_flash_ex.c ****   *         FLASH_OBR_nRST_STOP(Bit3),FLASH_OBR_nRST_STDBY(Bit4).
 934:./Drivers/STM32F1xx_HAL_Driver/Src/stm32f1xx_hal_flash_ex.c ****   *         And BFBF2(Bit5) for STM32F101xG and STM32F103xG . 
 935:./Drivers/STM32F1xx_HAL_Driver/Src/stm32f1xx_hal_flash_ex.c ****   * @retval HAL status
 936:./Drivers/STM32F1xx_HAL_Driver/Src/stm32f1xx_hal_flash_ex.c ****   */
 937:./Drivers/STM32F1xx_HAL_Driver/Src/stm32f1xx_hal_flash_ex.c **** static HAL_StatusTypeDef FLASH_OB_UserConfig(uint8_t UserConfig)
 938:./Drivers/STM32F1xx_HAL_Driver/Src/stm32f1xx_hal_flash_ex.c **** {
 1294              		.loc 1 938 1
 1295              		.cfi_startproc
 1296              		@ args = 0, pretend = 0, frame = 16
 1297              		@ frame_needed = 1, uses_anonymous_args = 0
 1298 0000 80B5     		push	{r7, lr}
 1299              		.cfi_def_cfa_offset 8
 1300              		.cfi_offset 7, -8
ARM GAS  C:\Users\ULTIMA~1\AppData\Local\Temp\ccbIrIj9.s 			page 40


 1301              		.cfi_offset 14, -4
 1302 0002 84B0     		sub	sp, sp, #16
 1303              		.cfi_def_cfa_offset 24
 1304 0004 00AF     		add	r7, sp, #0
 1305              		.cfi_def_cfa_register 7
 1306 0006 0346     		mov	r3, r0
 1307 0008 FB71     		strb	r3, [r7, #7]
 939:./Drivers/STM32F1xx_HAL_Driver/Src/stm32f1xx_hal_flash_ex.c ****   HAL_StatusTypeDef status = HAL_OK;
 1308              		.loc 1 939 21
 1309 000a 0023     		movs	r3, #0
 1310 000c FB73     		strb	r3, [r7, #15]
 940:./Drivers/STM32F1xx_HAL_Driver/Src/stm32f1xx_hal_flash_ex.c **** 
 941:./Drivers/STM32F1xx_HAL_Driver/Src/stm32f1xx_hal_flash_ex.c ****   /* Check the parameters */
 942:./Drivers/STM32F1xx_HAL_Driver/Src/stm32f1xx_hal_flash_ex.c ****   assert_param(IS_OB_IWDG_SOURCE((UserConfig&OB_IWDG_SW)));
 943:./Drivers/STM32F1xx_HAL_Driver/Src/stm32f1xx_hal_flash_ex.c ****   assert_param(IS_OB_STOP_SOURCE((UserConfig&OB_STOP_NO_RST)));
 944:./Drivers/STM32F1xx_HAL_Driver/Src/stm32f1xx_hal_flash_ex.c ****   assert_param(IS_OB_STDBY_SOURCE((UserConfig&OB_STDBY_NO_RST)));
 945:./Drivers/STM32F1xx_HAL_Driver/Src/stm32f1xx_hal_flash_ex.c **** #if defined(FLASH_BANK2_END)
 946:./Drivers/STM32F1xx_HAL_Driver/Src/stm32f1xx_hal_flash_ex.c ****   assert_param(IS_OB_BOOT1((UserConfig&OB_BOOT1_SET)));
 947:./Drivers/STM32F1xx_HAL_Driver/Src/stm32f1xx_hal_flash_ex.c **** #endif /* FLASH_BANK2_END */
 948:./Drivers/STM32F1xx_HAL_Driver/Src/stm32f1xx_hal_flash_ex.c **** 
 949:./Drivers/STM32F1xx_HAL_Driver/Src/stm32f1xx_hal_flash_ex.c ****   /* Wait for last operation to be completed */
 950:./Drivers/STM32F1xx_HAL_Driver/Src/stm32f1xx_hal_flash_ex.c ****   status = FLASH_WaitForLastOperation((uint32_t)FLASH_TIMEOUT_VALUE);
 1311              		.loc 1 950 12
 1312 000e 4CF25030 		movw	r0, #50000
 1313 0012 FFF7FEFF 		bl	FLASH_WaitForLastOperation
 1314 0016 0346     		mov	r3, r0
 1315 0018 FB73     		strb	r3, [r7, #15]
 951:./Drivers/STM32F1xx_HAL_Driver/Src/stm32f1xx_hal_flash_ex.c ****   
 952:./Drivers/STM32F1xx_HAL_Driver/Src/stm32f1xx_hal_flash_ex.c ****   if(status == HAL_OK)
 1316              		.loc 1 952 5
 1317 001a FB7B     		ldrb	r3, [r7, #15]	@ zero_extendqisi2
 1318 001c 002B     		cmp	r3, #0
 1319 001e 1BD1     		bne	.L69
 953:./Drivers/STM32F1xx_HAL_Driver/Src/stm32f1xx_hal_flash_ex.c ****   {     
 954:./Drivers/STM32F1xx_HAL_Driver/Src/stm32f1xx_hal_flash_ex.c ****     /* Clean the error context */
 955:./Drivers/STM32F1xx_HAL_Driver/Src/stm32f1xx_hal_flash_ex.c ****     pFlash.ErrorCode = HAL_FLASH_ERROR_NONE;
 1320              		.loc 1 955 22
 1321 0020 104B     		ldr	r3, .L71
 1322 0022 0022     		movs	r2, #0
 1323 0024 DA61     		str	r2, [r3, #28]
 956:./Drivers/STM32F1xx_HAL_Driver/Src/stm32f1xx_hal_flash_ex.c **** 
 957:./Drivers/STM32F1xx_HAL_Driver/Src/stm32f1xx_hal_flash_ex.c ****     /* Enable the Option Bytes Programming operation */
 958:./Drivers/STM32F1xx_HAL_Driver/Src/stm32f1xx_hal_flash_ex.c ****     SET_BIT(FLASH->CR, FLASH_CR_OPTPG); 
 1324              		.loc 1 958 5
 1325 0026 104B     		ldr	r3, .L71+4
 1326 0028 1B69     		ldr	r3, [r3, #16]
 1327 002a 0F4A     		ldr	r2, .L71+4
 1328 002c 43F01003 		orr	r3, r3, #16
 1329 0030 1361     		str	r3, [r2, #16]
 959:./Drivers/STM32F1xx_HAL_Driver/Src/stm32f1xx_hal_flash_ex.c ****  
 960:./Drivers/STM32F1xx_HAL_Driver/Src/stm32f1xx_hal_flash_ex.c **** #if defined(FLASH_BANK2_END)
 961:./Drivers/STM32F1xx_HAL_Driver/Src/stm32f1xx_hal_flash_ex.c ****     OB->USER = (UserConfig | 0xF0U);
 962:./Drivers/STM32F1xx_HAL_Driver/Src/stm32f1xx_hal_flash_ex.c **** #else
 963:./Drivers/STM32F1xx_HAL_Driver/Src/stm32f1xx_hal_flash_ex.c ****     OB->USER = (UserConfig | 0x88U);
 1330              		.loc 1 963 14
 1331 0032 FB79     		ldrb	r3, [r7, #7]
 1332 0034 63F07703 		orn	r3, r3, #119
ARM GAS  C:\Users\ULTIMA~1\AppData\Local\Temp\ccbIrIj9.s 			page 41


 1333 0038 DAB2     		uxtb	r2, r3
 1334              		.loc 1 963 7
 1335 003a 0C4B     		ldr	r3, .L71+8
 1336              		.loc 1 963 14
 1337 003c 92B2     		uxth	r2, r2
 1338 003e 5A80     		strh	r2, [r3, #2]	@ movhi
 964:./Drivers/STM32F1xx_HAL_Driver/Src/stm32f1xx_hal_flash_ex.c **** #endif /* FLASH_BANK2_END */
 965:./Drivers/STM32F1xx_HAL_Driver/Src/stm32f1xx_hal_flash_ex.c **** 
 966:./Drivers/STM32F1xx_HAL_Driver/Src/stm32f1xx_hal_flash_ex.c ****     /* Wait for last operation to be completed */
 967:./Drivers/STM32F1xx_HAL_Driver/Src/stm32f1xx_hal_flash_ex.c ****     status = FLASH_WaitForLastOperation((uint32_t)FLASH_TIMEOUT_VALUE);
 1339              		.loc 1 967 14
 1340 0040 4CF25030 		movw	r0, #50000
 1341 0044 FFF7FEFF 		bl	FLASH_WaitForLastOperation
 1342 0048 0346     		mov	r3, r0
 1343 004a FB73     		strb	r3, [r7, #15]
 968:./Drivers/STM32F1xx_HAL_Driver/Src/stm32f1xx_hal_flash_ex.c **** 
 969:./Drivers/STM32F1xx_HAL_Driver/Src/stm32f1xx_hal_flash_ex.c ****     /* if the program operation is completed, disable the OPTPG Bit */
 970:./Drivers/STM32F1xx_HAL_Driver/Src/stm32f1xx_hal_flash_ex.c ****     CLEAR_BIT(FLASH->CR, FLASH_CR_OPTPG);
 1344              		.loc 1 970 5
 1345 004c 064B     		ldr	r3, .L71+4
 1346 004e 1B69     		ldr	r3, [r3, #16]
 1347 0050 054A     		ldr	r2, .L71+4
 1348 0052 23F01003 		bic	r3, r3, #16
 1349 0056 1361     		str	r3, [r2, #16]
 1350              	.L69:
 971:./Drivers/STM32F1xx_HAL_Driver/Src/stm32f1xx_hal_flash_ex.c ****   }
 972:./Drivers/STM32F1xx_HAL_Driver/Src/stm32f1xx_hal_flash_ex.c ****   
 973:./Drivers/STM32F1xx_HAL_Driver/Src/stm32f1xx_hal_flash_ex.c ****   return status; 
 1351              		.loc 1 973 10
 1352 0058 FB7B     		ldrb	r3, [r7, #15]	@ zero_extendqisi2
 974:./Drivers/STM32F1xx_HAL_Driver/Src/stm32f1xx_hal_flash_ex.c **** }
 1353              		.loc 1 974 1
 1354 005a 1846     		mov	r0, r3
 1355 005c 1037     		adds	r7, r7, #16
 1356              		.cfi_def_cfa_offset 8
 1357 005e BD46     		mov	sp, r7
 1358              		.cfi_def_cfa_register 13
 1359              		@ sp needed
 1360 0060 80BD     		pop	{r7, pc}
 1361              	.L72:
 1362 0062 00BF     		.align	2
 1363              	.L71:
 1364 0064 00000000 		.word	pFlash
 1365 0068 00200240 		.word	1073881088
 1366 006c 00F8FF1F 		.word	536868864
 1367              		.cfi_endproc
 1368              	.LFE75:
 1370              		.section	.text.FLASH_OB_ProgramData,"ax",%progbits
 1371              		.align	1
 1372              		.syntax unified
 1373              		.thumb
 1374              		.thumb_func
 1376              	FLASH_OB_ProgramData:
 1377              	.LFB76:
 975:./Drivers/STM32F1xx_HAL_Driver/Src/stm32f1xx_hal_flash_ex.c **** 
 976:./Drivers/STM32F1xx_HAL_Driver/Src/stm32f1xx_hal_flash_ex.c **** /**
 977:./Drivers/STM32F1xx_HAL_Driver/Src/stm32f1xx_hal_flash_ex.c ****   * @brief  Programs a half word at a specified Option Byte Data address.
ARM GAS  C:\Users\ULTIMA~1\AppData\Local\Temp\ccbIrIj9.s 			page 42


 978:./Drivers/STM32F1xx_HAL_Driver/Src/stm32f1xx_hal_flash_ex.c ****   * @note   The function @ref HAL_FLASH_Unlock() should be called before to unlock the FLASH interf
 979:./Drivers/STM32F1xx_HAL_Driver/Src/stm32f1xx_hal_flash_ex.c ****   *         The function @ref HAL_FLASH_OB_Unlock() should be called before to unlock the options b
 980:./Drivers/STM32F1xx_HAL_Driver/Src/stm32f1xx_hal_flash_ex.c ****   *         The function @ref HAL_FLASH_OB_Launch() should be called after to force the reload of t
 981:./Drivers/STM32F1xx_HAL_Driver/Src/stm32f1xx_hal_flash_ex.c ****   *         (system reset will occur)
 982:./Drivers/STM32F1xx_HAL_Driver/Src/stm32f1xx_hal_flash_ex.c ****   *         Programming of the OB should be performed only after an erase (otherwise PGERR occurs)
 983:./Drivers/STM32F1xx_HAL_Driver/Src/stm32f1xx_hal_flash_ex.c ****   * @param  Address specifies the address to be programmed.
 984:./Drivers/STM32F1xx_HAL_Driver/Src/stm32f1xx_hal_flash_ex.c ****   *         This parameter can be 0x1FFFF804 or 0x1FFFF806. 
 985:./Drivers/STM32F1xx_HAL_Driver/Src/stm32f1xx_hal_flash_ex.c ****   * @param  Data specifies the data to be programmed.
 986:./Drivers/STM32F1xx_HAL_Driver/Src/stm32f1xx_hal_flash_ex.c ****   * @retval HAL status
 987:./Drivers/STM32F1xx_HAL_Driver/Src/stm32f1xx_hal_flash_ex.c ****   */
 988:./Drivers/STM32F1xx_HAL_Driver/Src/stm32f1xx_hal_flash_ex.c **** static HAL_StatusTypeDef FLASH_OB_ProgramData(uint32_t Address, uint8_t Data)
 989:./Drivers/STM32F1xx_HAL_Driver/Src/stm32f1xx_hal_flash_ex.c **** {
 1378              		.loc 1 989 1
 1379              		.cfi_startproc
 1380              		@ args = 0, pretend = 0, frame = 16
 1381              		@ frame_needed = 1, uses_anonymous_args = 0
 1382 0000 80B5     		push	{r7, lr}
 1383              		.cfi_def_cfa_offset 8
 1384              		.cfi_offset 7, -8
 1385              		.cfi_offset 14, -4
 1386 0002 84B0     		sub	sp, sp, #16
 1387              		.cfi_def_cfa_offset 24
 1388 0004 00AF     		add	r7, sp, #0
 1389              		.cfi_def_cfa_register 7
 1390 0006 7860     		str	r0, [r7, #4]
 1391 0008 0B46     		mov	r3, r1
 1392 000a FB70     		strb	r3, [r7, #3]
 990:./Drivers/STM32F1xx_HAL_Driver/Src/stm32f1xx_hal_flash_ex.c ****   HAL_StatusTypeDef status = HAL_ERROR;
 1393              		.loc 1 990 21
 1394 000c 0123     		movs	r3, #1
 1395 000e FB73     		strb	r3, [r7, #15]
 991:./Drivers/STM32F1xx_HAL_Driver/Src/stm32f1xx_hal_flash_ex.c ****   
 992:./Drivers/STM32F1xx_HAL_Driver/Src/stm32f1xx_hal_flash_ex.c ****   /* Check the parameters */
 993:./Drivers/STM32F1xx_HAL_Driver/Src/stm32f1xx_hal_flash_ex.c ****   assert_param(IS_OB_DATA_ADDRESS(Address));
 994:./Drivers/STM32F1xx_HAL_Driver/Src/stm32f1xx_hal_flash_ex.c ****   
 995:./Drivers/STM32F1xx_HAL_Driver/Src/stm32f1xx_hal_flash_ex.c ****   /* Wait for last operation to be completed */
 996:./Drivers/STM32F1xx_HAL_Driver/Src/stm32f1xx_hal_flash_ex.c ****   status = FLASH_WaitForLastOperation((uint32_t)FLASH_TIMEOUT_VALUE);
 1396              		.loc 1 996 12
 1397 0010 4CF25030 		movw	r0, #50000
 1398 0014 FFF7FEFF 		bl	FLASH_WaitForLastOperation
 1399 0018 0346     		mov	r3, r0
 1400 001a FB73     		strb	r3, [r7, #15]
 997:./Drivers/STM32F1xx_HAL_Driver/Src/stm32f1xx_hal_flash_ex.c ****   
 998:./Drivers/STM32F1xx_HAL_Driver/Src/stm32f1xx_hal_flash_ex.c ****   if(status == HAL_OK)
 1401              		.loc 1 998 5
 1402 001c FB7B     		ldrb	r3, [r7, #15]	@ zero_extendqisi2
 1403 001e 002B     		cmp	r3, #0
 1404 0020 18D1     		bne	.L74
 999:./Drivers/STM32F1xx_HAL_Driver/Src/stm32f1xx_hal_flash_ex.c ****   {
1000:./Drivers/STM32F1xx_HAL_Driver/Src/stm32f1xx_hal_flash_ex.c ****     /* Clean the error context */
1001:./Drivers/STM32F1xx_HAL_Driver/Src/stm32f1xx_hal_flash_ex.c ****     pFlash.ErrorCode = HAL_FLASH_ERROR_NONE;
 1405              		.loc 1 1001 22
 1406 0022 0F4B     		ldr	r3, .L76
 1407 0024 0022     		movs	r2, #0
 1408 0026 DA61     		str	r2, [r3, #28]
1002:./Drivers/STM32F1xx_HAL_Driver/Src/stm32f1xx_hal_flash_ex.c **** 
1003:./Drivers/STM32F1xx_HAL_Driver/Src/stm32f1xx_hal_flash_ex.c ****     /* Enables the Option Bytes Programming operation */
ARM GAS  C:\Users\ULTIMA~1\AppData\Local\Temp\ccbIrIj9.s 			page 43


1004:./Drivers/STM32F1xx_HAL_Driver/Src/stm32f1xx_hal_flash_ex.c ****     SET_BIT(FLASH->CR, FLASH_CR_OPTPG); 
 1409              		.loc 1 1004 5
 1410 0028 0E4B     		ldr	r3, .L76+4
 1411 002a 1B69     		ldr	r3, [r3, #16]
 1412 002c 0D4A     		ldr	r2, .L76+4
 1413 002e 43F01003 		orr	r3, r3, #16
 1414 0032 1361     		str	r3, [r2, #16]
1005:./Drivers/STM32F1xx_HAL_Driver/Src/stm32f1xx_hal_flash_ex.c ****     *(__IO uint16_t*)Address = Data;
 1415              		.loc 1 1005 6
 1416 0034 7B68     		ldr	r3, [r7, #4]
 1417              		.loc 1 1005 30
 1418 0036 FA78     		ldrb	r2, [r7, #3]	@ zero_extendqisi2
 1419 0038 92B2     		uxth	r2, r2
 1420 003a 1A80     		strh	r2, [r3]	@ movhi
1006:./Drivers/STM32F1xx_HAL_Driver/Src/stm32f1xx_hal_flash_ex.c ****     
1007:./Drivers/STM32F1xx_HAL_Driver/Src/stm32f1xx_hal_flash_ex.c ****     /* Wait for last operation to be completed */
1008:./Drivers/STM32F1xx_HAL_Driver/Src/stm32f1xx_hal_flash_ex.c ****     status = FLASH_WaitForLastOperation((uint32_t)FLASH_TIMEOUT_VALUE);
 1421              		.loc 1 1008 14
 1422 003c 4CF25030 		movw	r0, #50000
 1423 0040 FFF7FEFF 		bl	FLASH_WaitForLastOperation
 1424 0044 0346     		mov	r3, r0
 1425 0046 FB73     		strb	r3, [r7, #15]
1009:./Drivers/STM32F1xx_HAL_Driver/Src/stm32f1xx_hal_flash_ex.c ****     
1010:./Drivers/STM32F1xx_HAL_Driver/Src/stm32f1xx_hal_flash_ex.c ****     /* If the program operation is completed, disable the OPTPG Bit */
1011:./Drivers/STM32F1xx_HAL_Driver/Src/stm32f1xx_hal_flash_ex.c ****     CLEAR_BIT(FLASH->CR, FLASH_CR_OPTPG);
 1426              		.loc 1 1011 5
 1427 0048 064B     		ldr	r3, .L76+4
 1428 004a 1B69     		ldr	r3, [r3, #16]
 1429 004c 054A     		ldr	r2, .L76+4
 1430 004e 23F01003 		bic	r3, r3, #16
 1431 0052 1361     		str	r3, [r2, #16]
 1432              	.L74:
1012:./Drivers/STM32F1xx_HAL_Driver/Src/stm32f1xx_hal_flash_ex.c ****   }
1013:./Drivers/STM32F1xx_HAL_Driver/Src/stm32f1xx_hal_flash_ex.c ****   /* Return the Option Byte Data Program Status */
1014:./Drivers/STM32F1xx_HAL_Driver/Src/stm32f1xx_hal_flash_ex.c ****   return status;
 1433              		.loc 1 1014 10
 1434 0054 FB7B     		ldrb	r3, [r7, #15]	@ zero_extendqisi2
1015:./Drivers/STM32F1xx_HAL_Driver/Src/stm32f1xx_hal_flash_ex.c **** }
 1435              		.loc 1 1015 1
 1436 0056 1846     		mov	r0, r3
 1437 0058 1037     		adds	r7, r7, #16
 1438              		.cfi_def_cfa_offset 8
 1439 005a BD46     		mov	sp, r7
 1440              		.cfi_def_cfa_register 13
 1441              		@ sp needed
 1442 005c 80BD     		pop	{r7, pc}
 1443              	.L77:
 1444 005e 00BF     		.align	2
 1445              	.L76:
 1446 0060 00000000 		.word	pFlash
 1447 0064 00200240 		.word	1073881088
 1448              		.cfi_endproc
 1449              	.LFE76:
 1451              		.section	.text.FLASH_OB_GetWRP,"ax",%progbits
 1452              		.align	1
 1453              		.syntax unified
 1454              		.thumb
ARM GAS  C:\Users\ULTIMA~1\AppData\Local\Temp\ccbIrIj9.s 			page 44


 1455              		.thumb_func
 1457              	FLASH_OB_GetWRP:
 1458              	.LFB77:
1016:./Drivers/STM32F1xx_HAL_Driver/Src/stm32f1xx_hal_flash_ex.c **** 
1017:./Drivers/STM32F1xx_HAL_Driver/Src/stm32f1xx_hal_flash_ex.c **** /**
1018:./Drivers/STM32F1xx_HAL_Driver/Src/stm32f1xx_hal_flash_ex.c ****   * @brief  Return the FLASH Write Protection Option Bytes value.
1019:./Drivers/STM32F1xx_HAL_Driver/Src/stm32f1xx_hal_flash_ex.c ****   * @retval The FLASH Write Protection Option Bytes value
1020:./Drivers/STM32F1xx_HAL_Driver/Src/stm32f1xx_hal_flash_ex.c ****   */
1021:./Drivers/STM32F1xx_HAL_Driver/Src/stm32f1xx_hal_flash_ex.c **** static uint32_t FLASH_OB_GetWRP(void)
1022:./Drivers/STM32F1xx_HAL_Driver/Src/stm32f1xx_hal_flash_ex.c **** {
 1459              		.loc 1 1022 1
 1460              		.cfi_startproc
 1461              		@ args = 0, pretend = 0, frame = 0
 1462              		@ frame_needed = 1, uses_anonymous_args = 0
 1463              		@ link register save eliminated.
 1464 0000 80B4     		push	{r7}
 1465              		.cfi_def_cfa_offset 4
 1466              		.cfi_offset 7, -4
 1467 0002 00AF     		add	r7, sp, #0
 1468              		.cfi_def_cfa_register 7
1023:./Drivers/STM32F1xx_HAL_Driver/Src/stm32f1xx_hal_flash_ex.c ****   /* Return the FLASH write protection Register value */
1024:./Drivers/STM32F1xx_HAL_Driver/Src/stm32f1xx_hal_flash_ex.c ****   return (uint32_t)(READ_REG(FLASH->WRPR));
 1469              		.loc 1 1024 21
 1470 0004 024B     		ldr	r3, .L80
 1471              		.loc 1 1024 10
 1472 0006 1B6A     		ldr	r3, [r3, #32]
1025:./Drivers/STM32F1xx_HAL_Driver/Src/stm32f1xx_hal_flash_ex.c **** }
 1473              		.loc 1 1025 1
 1474 0008 1846     		mov	r0, r3
 1475 000a BD46     		mov	sp, r7
 1476              		.cfi_def_cfa_register 13
 1477              		@ sp needed
 1478 000c 80BC     		pop	{r7}
 1479              		.cfi_restore 7
 1480              		.cfi_def_cfa_offset 0
 1481 000e 7047     		bx	lr
 1482              	.L81:
 1483              		.align	2
 1484              	.L80:
 1485 0010 00200240 		.word	1073881088
 1486              		.cfi_endproc
 1487              	.LFE77:
 1489              		.section	.text.FLASH_OB_GetRDP,"ax",%progbits
 1490              		.align	1
 1491              		.syntax unified
 1492              		.thumb
 1493              		.thumb_func
 1495              	FLASH_OB_GetRDP:
 1496              	.LFB78:
1026:./Drivers/STM32F1xx_HAL_Driver/Src/stm32f1xx_hal_flash_ex.c **** 
1027:./Drivers/STM32F1xx_HAL_Driver/Src/stm32f1xx_hal_flash_ex.c **** /**
1028:./Drivers/STM32F1xx_HAL_Driver/Src/stm32f1xx_hal_flash_ex.c ****   * @brief  Returns the FLASH Read Protection level.
1029:./Drivers/STM32F1xx_HAL_Driver/Src/stm32f1xx_hal_flash_ex.c ****   * @retval FLASH RDP level
1030:./Drivers/STM32F1xx_HAL_Driver/Src/stm32f1xx_hal_flash_ex.c ****   *         This parameter can be one of the following values:
1031:./Drivers/STM32F1xx_HAL_Driver/Src/stm32f1xx_hal_flash_ex.c ****   *            @arg @ref OB_RDP_LEVEL_0 No protection
1032:./Drivers/STM32F1xx_HAL_Driver/Src/stm32f1xx_hal_flash_ex.c ****   *            @arg @ref OB_RDP_LEVEL_1 Read protection of the memory
1033:./Drivers/STM32F1xx_HAL_Driver/Src/stm32f1xx_hal_flash_ex.c ****   */
ARM GAS  C:\Users\ULTIMA~1\AppData\Local\Temp\ccbIrIj9.s 			page 45


1034:./Drivers/STM32F1xx_HAL_Driver/Src/stm32f1xx_hal_flash_ex.c **** static uint32_t FLASH_OB_GetRDP(void)
1035:./Drivers/STM32F1xx_HAL_Driver/Src/stm32f1xx_hal_flash_ex.c **** {
 1497              		.loc 1 1035 1
 1498              		.cfi_startproc
 1499              		@ args = 0, pretend = 0, frame = 8
 1500              		@ frame_needed = 1, uses_anonymous_args = 0
 1501              		@ link register save eliminated.
 1502 0000 80B4     		push	{r7}
 1503              		.cfi_def_cfa_offset 4
 1504              		.cfi_offset 7, -4
 1505 0002 83B0     		sub	sp, sp, #12
 1506              		.cfi_def_cfa_offset 16
 1507 0004 00AF     		add	r7, sp, #0
 1508              		.cfi_def_cfa_register 7
1036:./Drivers/STM32F1xx_HAL_Driver/Src/stm32f1xx_hal_flash_ex.c ****   uint32_t readstatus = OB_RDP_LEVEL_0;
 1509              		.loc 1 1036 12
 1510 0006 A523     		movs	r3, #165
 1511 0008 7B60     		str	r3, [r7, #4]
1037:./Drivers/STM32F1xx_HAL_Driver/Src/stm32f1xx_hal_flash_ex.c ****   uint32_t tmp_reg = 0U;
 1512              		.loc 1 1037 12
 1513 000a 0023     		movs	r3, #0
 1514 000c 3B60     		str	r3, [r7]
1038:./Drivers/STM32F1xx_HAL_Driver/Src/stm32f1xx_hal_flash_ex.c ****   
1039:./Drivers/STM32F1xx_HAL_Driver/Src/stm32f1xx_hal_flash_ex.c ****   /* Read RDP level bits */
1040:./Drivers/STM32F1xx_HAL_Driver/Src/stm32f1xx_hal_flash_ex.c ****   tmp_reg = READ_BIT(FLASH->OBR, FLASH_OBR_RDPRT);
 1515              		.loc 1 1040 13
 1516 000e 094B     		ldr	r3, .L86
 1517 0010 DB69     		ldr	r3, [r3, #28]
 1518              		.loc 1 1040 11
 1519 0012 03F00203 		and	r3, r3, #2
 1520 0016 3B60     		str	r3, [r7]
1041:./Drivers/STM32F1xx_HAL_Driver/Src/stm32f1xx_hal_flash_ex.c **** 
1042:./Drivers/STM32F1xx_HAL_Driver/Src/stm32f1xx_hal_flash_ex.c ****   if (tmp_reg == FLASH_OBR_RDPRT)
 1521              		.loc 1 1042 6
 1522 0018 3B68     		ldr	r3, [r7]
 1523 001a 022B     		cmp	r3, #2
 1524 001c 02D1     		bne	.L83
1043:./Drivers/STM32F1xx_HAL_Driver/Src/stm32f1xx_hal_flash_ex.c ****   {
1044:./Drivers/STM32F1xx_HAL_Driver/Src/stm32f1xx_hal_flash_ex.c ****     readstatus = OB_RDP_LEVEL_1;
 1525              		.loc 1 1044 16
 1526 001e 0023     		movs	r3, #0
 1527 0020 7B60     		str	r3, [r7, #4]
 1528 0022 01E0     		b	.L84
 1529              	.L83:
1045:./Drivers/STM32F1xx_HAL_Driver/Src/stm32f1xx_hal_flash_ex.c ****   }
1046:./Drivers/STM32F1xx_HAL_Driver/Src/stm32f1xx_hal_flash_ex.c ****   else 
1047:./Drivers/STM32F1xx_HAL_Driver/Src/stm32f1xx_hal_flash_ex.c ****   {
1048:./Drivers/STM32F1xx_HAL_Driver/Src/stm32f1xx_hal_flash_ex.c ****     readstatus = OB_RDP_LEVEL_0;
 1530              		.loc 1 1048 16
 1531 0024 A523     		movs	r3, #165
 1532 0026 7B60     		str	r3, [r7, #4]
 1533              	.L84:
1049:./Drivers/STM32F1xx_HAL_Driver/Src/stm32f1xx_hal_flash_ex.c ****   }
1050:./Drivers/STM32F1xx_HAL_Driver/Src/stm32f1xx_hal_flash_ex.c **** 
1051:./Drivers/STM32F1xx_HAL_Driver/Src/stm32f1xx_hal_flash_ex.c ****   return readstatus;
 1534              		.loc 1 1051 10
 1535 0028 7B68     		ldr	r3, [r7, #4]
ARM GAS  C:\Users\ULTIMA~1\AppData\Local\Temp\ccbIrIj9.s 			page 46


1052:./Drivers/STM32F1xx_HAL_Driver/Src/stm32f1xx_hal_flash_ex.c **** }
 1536              		.loc 1 1052 1
 1537 002a 1846     		mov	r0, r3
 1538 002c 0C37     		adds	r7, r7, #12
 1539              		.cfi_def_cfa_offset 4
 1540 002e BD46     		mov	sp, r7
 1541              		.cfi_def_cfa_register 13
 1542              		@ sp needed
 1543 0030 80BC     		pop	{r7}
 1544              		.cfi_restore 7
 1545              		.cfi_def_cfa_offset 0
 1546 0032 7047     		bx	lr
 1547              	.L87:
 1548              		.align	2
 1549              	.L86:
 1550 0034 00200240 		.word	1073881088
 1551              		.cfi_endproc
 1552              	.LFE78:
 1554              		.section	.text.FLASH_OB_GetUser,"ax",%progbits
 1555              		.align	1
 1556              		.syntax unified
 1557              		.thumb
 1558              		.thumb_func
 1560              	FLASH_OB_GetUser:
 1561              	.LFB79:
1053:./Drivers/STM32F1xx_HAL_Driver/Src/stm32f1xx_hal_flash_ex.c **** 
1054:./Drivers/STM32F1xx_HAL_Driver/Src/stm32f1xx_hal_flash_ex.c **** /**
1055:./Drivers/STM32F1xx_HAL_Driver/Src/stm32f1xx_hal_flash_ex.c ****   * @brief  Return the FLASH User Option Byte value.
1056:./Drivers/STM32F1xx_HAL_Driver/Src/stm32f1xx_hal_flash_ex.c ****   * @retval The FLASH User Option Bytes values: FLASH_OBR_IWDG_SW(Bit2), 
1057:./Drivers/STM32F1xx_HAL_Driver/Src/stm32f1xx_hal_flash_ex.c ****   *         FLASH_OBR_nRST_STOP(Bit3),FLASH_OBR_nRST_STDBY(Bit4).
1058:./Drivers/STM32F1xx_HAL_Driver/Src/stm32f1xx_hal_flash_ex.c ****   *         And FLASH_OBR_BFB2(Bit5) for STM32F101xG and STM32F103xG . 
1059:./Drivers/STM32F1xx_HAL_Driver/Src/stm32f1xx_hal_flash_ex.c ****   */
1060:./Drivers/STM32F1xx_HAL_Driver/Src/stm32f1xx_hal_flash_ex.c **** static uint8_t FLASH_OB_GetUser(void)
1061:./Drivers/STM32F1xx_HAL_Driver/Src/stm32f1xx_hal_flash_ex.c **** {
 1562              		.loc 1 1061 1
 1563              		.cfi_startproc
 1564              		@ args = 0, pretend = 0, frame = 0
 1565              		@ frame_needed = 1, uses_anonymous_args = 0
 1566              		@ link register save eliminated.
 1567 0000 80B4     		push	{r7}
 1568              		.cfi_def_cfa_offset 4
 1569              		.cfi_offset 7, -4
 1570 0002 00AF     		add	r7, sp, #0
 1571              		.cfi_def_cfa_register 7
1062:./Drivers/STM32F1xx_HAL_Driver/Src/stm32f1xx_hal_flash_ex.c ****   /* Return the User Option Byte */
1063:./Drivers/STM32F1xx_HAL_Driver/Src/stm32f1xx_hal_flash_ex.c ****   return (uint8_t)((READ_REG(FLASH->OBR) & FLASH_OBR_USER) >> FLASH_POSITION_IWDGSW_BIT);
 1572              		.loc 1 1063 21
 1573 0004 054B     		ldr	r3, .L90
 1574 0006 DB69     		ldr	r3, [r3, #28]
 1575              		.loc 1 1063 60
 1576 0008 9B08     		lsrs	r3, r3, #2
 1577              		.loc 1 1063 10
 1578 000a DBB2     		uxtb	r3, r3
 1579 000c 03F00703 		and	r3, r3, #7
 1580 0010 DBB2     		uxtb	r3, r3
1064:./Drivers/STM32F1xx_HAL_Driver/Src/stm32f1xx_hal_flash_ex.c **** }
 1581              		.loc 1 1064 1
ARM GAS  C:\Users\ULTIMA~1\AppData\Local\Temp\ccbIrIj9.s 			page 47


 1582 0012 1846     		mov	r0, r3
 1583 0014 BD46     		mov	sp, r7
 1584              		.cfi_def_cfa_register 13
 1585              		@ sp needed
 1586 0016 80BC     		pop	{r7}
 1587              		.cfi_restore 7
 1588              		.cfi_def_cfa_offset 0
 1589 0018 7047     		bx	lr
 1590              	.L91:
 1591 001a 00BF     		.align	2
 1592              	.L90:
 1593 001c 00200240 		.word	1073881088
 1594              		.cfi_endproc
 1595              	.LFE79:
 1597              		.section	.text.FLASH_PageErase,"ax",%progbits
 1598              		.align	1
 1599              		.global	FLASH_PageErase
 1600              		.syntax unified
 1601              		.thumb
 1602              		.thumb_func
 1604              	FLASH_PageErase:
 1605              	.LFB80:
1065:./Drivers/STM32F1xx_HAL_Driver/Src/stm32f1xx_hal_flash_ex.c **** 
1066:./Drivers/STM32F1xx_HAL_Driver/Src/stm32f1xx_hal_flash_ex.c **** /**
1067:./Drivers/STM32F1xx_HAL_Driver/Src/stm32f1xx_hal_flash_ex.c ****   * @}
1068:./Drivers/STM32F1xx_HAL_Driver/Src/stm32f1xx_hal_flash_ex.c ****   */
1069:./Drivers/STM32F1xx_HAL_Driver/Src/stm32f1xx_hal_flash_ex.c **** 
1070:./Drivers/STM32F1xx_HAL_Driver/Src/stm32f1xx_hal_flash_ex.c **** /**
1071:./Drivers/STM32F1xx_HAL_Driver/Src/stm32f1xx_hal_flash_ex.c ****   * @}
1072:./Drivers/STM32F1xx_HAL_Driver/Src/stm32f1xx_hal_flash_ex.c ****   */
1073:./Drivers/STM32F1xx_HAL_Driver/Src/stm32f1xx_hal_flash_ex.c **** 
1074:./Drivers/STM32F1xx_HAL_Driver/Src/stm32f1xx_hal_flash_ex.c **** /** @addtogroup FLASH
1075:./Drivers/STM32F1xx_HAL_Driver/Src/stm32f1xx_hal_flash_ex.c ****   * @{
1076:./Drivers/STM32F1xx_HAL_Driver/Src/stm32f1xx_hal_flash_ex.c ****   */
1077:./Drivers/STM32F1xx_HAL_Driver/Src/stm32f1xx_hal_flash_ex.c **** 
1078:./Drivers/STM32F1xx_HAL_Driver/Src/stm32f1xx_hal_flash_ex.c **** /** @addtogroup FLASH_Private_Functions
1079:./Drivers/STM32F1xx_HAL_Driver/Src/stm32f1xx_hal_flash_ex.c ****  * @{
1080:./Drivers/STM32F1xx_HAL_Driver/Src/stm32f1xx_hal_flash_ex.c ****  */
1081:./Drivers/STM32F1xx_HAL_Driver/Src/stm32f1xx_hal_flash_ex.c **** 
1082:./Drivers/STM32F1xx_HAL_Driver/Src/stm32f1xx_hal_flash_ex.c **** /**
1083:./Drivers/STM32F1xx_HAL_Driver/Src/stm32f1xx_hal_flash_ex.c ****   * @brief  Erase the specified FLASH memory page
1084:./Drivers/STM32F1xx_HAL_Driver/Src/stm32f1xx_hal_flash_ex.c ****   * @param  PageAddress FLASH page to erase
1085:./Drivers/STM32F1xx_HAL_Driver/Src/stm32f1xx_hal_flash_ex.c ****   *         The value of this parameter depend on device used within the same series      
1086:./Drivers/STM32F1xx_HAL_Driver/Src/stm32f1xx_hal_flash_ex.c ****   * 
1087:./Drivers/STM32F1xx_HAL_Driver/Src/stm32f1xx_hal_flash_ex.c ****   * @retval None
1088:./Drivers/STM32F1xx_HAL_Driver/Src/stm32f1xx_hal_flash_ex.c ****   */
1089:./Drivers/STM32F1xx_HAL_Driver/Src/stm32f1xx_hal_flash_ex.c **** void FLASH_PageErase(uint32_t PageAddress)
1090:./Drivers/STM32F1xx_HAL_Driver/Src/stm32f1xx_hal_flash_ex.c **** {
 1606              		.loc 1 1090 1
 1607              		.cfi_startproc
 1608              		@ args = 0, pretend = 0, frame = 8
 1609              		@ frame_needed = 1, uses_anonymous_args = 0
 1610              		@ link register save eliminated.
 1611 0000 80B4     		push	{r7}
 1612              		.cfi_def_cfa_offset 4
 1613              		.cfi_offset 7, -4
 1614 0002 83B0     		sub	sp, sp, #12
ARM GAS  C:\Users\ULTIMA~1\AppData\Local\Temp\ccbIrIj9.s 			page 48


 1615              		.cfi_def_cfa_offset 16
 1616 0004 00AF     		add	r7, sp, #0
 1617              		.cfi_def_cfa_register 7
 1618 0006 7860     		str	r0, [r7, #4]
1091:./Drivers/STM32F1xx_HAL_Driver/Src/stm32f1xx_hal_flash_ex.c ****   /* Clean the error context */
1092:./Drivers/STM32F1xx_HAL_Driver/Src/stm32f1xx_hal_flash_ex.c ****   pFlash.ErrorCode = HAL_FLASH_ERROR_NONE;
 1619              		.loc 1 1092 20
 1620 0008 0B4B     		ldr	r3, .L93
 1621 000a 0022     		movs	r2, #0
 1622 000c DA61     		str	r2, [r3, #28]
1093:./Drivers/STM32F1xx_HAL_Driver/Src/stm32f1xx_hal_flash_ex.c **** 
1094:./Drivers/STM32F1xx_HAL_Driver/Src/stm32f1xx_hal_flash_ex.c **** #if defined(FLASH_BANK2_END)
1095:./Drivers/STM32F1xx_HAL_Driver/Src/stm32f1xx_hal_flash_ex.c ****   if(PageAddress > FLASH_BANK1_END)
1096:./Drivers/STM32F1xx_HAL_Driver/Src/stm32f1xx_hal_flash_ex.c ****   { 
1097:./Drivers/STM32F1xx_HAL_Driver/Src/stm32f1xx_hal_flash_ex.c ****     /* Proceed to erase the page */
1098:./Drivers/STM32F1xx_HAL_Driver/Src/stm32f1xx_hal_flash_ex.c ****     SET_BIT(FLASH->CR2, FLASH_CR2_PER);
1099:./Drivers/STM32F1xx_HAL_Driver/Src/stm32f1xx_hal_flash_ex.c ****     WRITE_REG(FLASH->AR2, PageAddress);
1100:./Drivers/STM32F1xx_HAL_Driver/Src/stm32f1xx_hal_flash_ex.c ****     SET_BIT(FLASH->CR2, FLASH_CR2_STRT);
1101:./Drivers/STM32F1xx_HAL_Driver/Src/stm32f1xx_hal_flash_ex.c ****   }
1102:./Drivers/STM32F1xx_HAL_Driver/Src/stm32f1xx_hal_flash_ex.c ****   else
1103:./Drivers/STM32F1xx_HAL_Driver/Src/stm32f1xx_hal_flash_ex.c ****   {
1104:./Drivers/STM32F1xx_HAL_Driver/Src/stm32f1xx_hal_flash_ex.c **** #endif /* FLASH_BANK2_END */
1105:./Drivers/STM32F1xx_HAL_Driver/Src/stm32f1xx_hal_flash_ex.c ****     /* Proceed to erase the page */
1106:./Drivers/STM32F1xx_HAL_Driver/Src/stm32f1xx_hal_flash_ex.c ****     SET_BIT(FLASH->CR, FLASH_CR_PER);
 1623              		.loc 1 1106 5
 1624 000e 0B4B     		ldr	r3, .L93+4
 1625 0010 1B69     		ldr	r3, [r3, #16]
 1626 0012 0A4A     		ldr	r2, .L93+4
 1627 0014 43F00203 		orr	r3, r3, #2
 1628 0018 1361     		str	r3, [r2, #16]
1107:./Drivers/STM32F1xx_HAL_Driver/Src/stm32f1xx_hal_flash_ex.c ****     WRITE_REG(FLASH->AR, PageAddress);
 1629              		.loc 1 1107 5
 1630 001a 084A     		ldr	r2, .L93+4
 1631 001c 7B68     		ldr	r3, [r7, #4]
 1632 001e 5361     		str	r3, [r2, #20]
1108:./Drivers/STM32F1xx_HAL_Driver/Src/stm32f1xx_hal_flash_ex.c ****     SET_BIT(FLASH->CR, FLASH_CR_STRT);
 1633              		.loc 1 1108 5
 1634 0020 064B     		ldr	r3, .L93+4
 1635 0022 1B69     		ldr	r3, [r3, #16]
 1636 0024 054A     		ldr	r2, .L93+4
 1637 0026 43F04003 		orr	r3, r3, #64
 1638 002a 1361     		str	r3, [r2, #16]
1109:./Drivers/STM32F1xx_HAL_Driver/Src/stm32f1xx_hal_flash_ex.c **** #if defined(FLASH_BANK2_END)
1110:./Drivers/STM32F1xx_HAL_Driver/Src/stm32f1xx_hal_flash_ex.c ****   }
1111:./Drivers/STM32F1xx_HAL_Driver/Src/stm32f1xx_hal_flash_ex.c **** #endif /* FLASH_BANK2_END */
1112:./Drivers/STM32F1xx_HAL_Driver/Src/stm32f1xx_hal_flash_ex.c **** }
 1639              		.loc 1 1112 1
 1640 002c 00BF     		nop
 1641 002e 0C37     		adds	r7, r7, #12
 1642              		.cfi_def_cfa_offset 4
 1643 0030 BD46     		mov	sp, r7
 1644              		.cfi_def_cfa_register 13
 1645              		@ sp needed
 1646 0032 80BC     		pop	{r7}
 1647              		.cfi_restore 7
 1648              		.cfi_def_cfa_offset 0
 1649 0034 7047     		bx	lr
ARM GAS  C:\Users\ULTIMA~1\AppData\Local\Temp\ccbIrIj9.s 			page 49


 1650              	.L94:
 1651 0036 00BF     		.align	2
 1652              	.L93:
 1653 0038 00000000 		.word	pFlash
 1654 003c 00200240 		.word	1073881088
 1655              		.cfi_endproc
 1656              	.LFE80:
 1658              		.text
 1659              	.Letext0:
 1660              		.file 2 "c:\\st\\stm32cubeide_1.10.1\\stm32cubeide\\plugins\\com.st.stm32cube.ide.mcu.externaltool
 1661              		.file 3 "c:\\st\\stm32cubeide_1.10.1\\stm32cubeide\\plugins\\com.st.stm32cube.ide.mcu.externaltool
 1662              		.file 4 "Drivers/CMSIS/Device/ST/STM32F1xx/Include/stm32f103xb.h"
 1663              		.file 5 "Drivers/STM32F1xx_HAL_Driver/Inc/stm32f1xx_hal_def.h"
 1664              		.file 6 "Drivers/STM32F1xx_HAL_Driver/Inc/stm32f1xx_hal_flash.h"
 1665              		.file 7 "Drivers/STM32F1xx_HAL_Driver/Inc/stm32f1xx_hal_flash_ex.h"
ARM GAS  C:\Users\ULTIMA~1\AppData\Local\Temp\ccbIrIj9.s 			page 50

