ARM GAS  C:\Users\ULTIMA~1\AppData\Local\Temp\cc1JA9tE.s 			page 1


   1              		.cpu cortex-m3
   2              		.arch armv7-m
   3              		.fpu softvfp
   4              		.eabi_attribute 20, 1
   5              		.eabi_attribute 21, 1
   6              		.eabi_attribute 23, 3
   7              		.eabi_attribute 24, 1
   8              		.eabi_attribute 25, 1
   9              		.eabi_attribute 26, 1
  10              		.eabi_attribute 30, 6
  11              		.eabi_attribute 34, 1
  12              		.eabi_attribute 18, 4
  13              		.file	"stm32f1xx_hal_rcc.c"
  14              		.text
  15              	.Ltext0:
  16              		.cfi_sections	.debug_frame
  17              		.section	.text.HAL_RCC_DeInit,"ax",%progbits
  18              		.align	1
  19              		.global	HAL_RCC_DeInit
  20              		.syntax unified
  21              		.thumb
  22              		.thumb_func
  24              	HAL_RCC_DeInit:
  25              	.LFB65:
  26              		.file 1 "./Drivers/STM32F1xx_HAL_Driver/Src/stm32f1xx_hal_rcc.c"
   1:./Drivers/STM32F1xx_HAL_Driver/Src/stm32f1xx_hal_rcc.c **** /**
   2:./Drivers/STM32F1xx_HAL_Driver/Src/stm32f1xx_hal_rcc.c ****   ******************************************************************************
   3:./Drivers/STM32F1xx_HAL_Driver/Src/stm32f1xx_hal_rcc.c ****   * @file    stm32f1xx_hal_rcc.c
   4:./Drivers/STM32F1xx_HAL_Driver/Src/stm32f1xx_hal_rcc.c ****   * @author  MCD Application Team
   5:./Drivers/STM32F1xx_HAL_Driver/Src/stm32f1xx_hal_rcc.c ****   * @brief   RCC HAL module driver.
   6:./Drivers/STM32F1xx_HAL_Driver/Src/stm32f1xx_hal_rcc.c ****   *          This file provides firmware functions to manage the following
   7:./Drivers/STM32F1xx_HAL_Driver/Src/stm32f1xx_hal_rcc.c ****   *          functionalities of the Reset and Clock Control (RCC) peripheral:
   8:./Drivers/STM32F1xx_HAL_Driver/Src/stm32f1xx_hal_rcc.c ****   *           + Initialization and de-initialization functions
   9:./Drivers/STM32F1xx_HAL_Driver/Src/stm32f1xx_hal_rcc.c ****   *           + Peripheral Control functions
  10:./Drivers/STM32F1xx_HAL_Driver/Src/stm32f1xx_hal_rcc.c ****   *
  11:./Drivers/STM32F1xx_HAL_Driver/Src/stm32f1xx_hal_rcc.c ****   @verbatim
  12:./Drivers/STM32F1xx_HAL_Driver/Src/stm32f1xx_hal_rcc.c ****   ==============================================================================
  13:./Drivers/STM32F1xx_HAL_Driver/Src/stm32f1xx_hal_rcc.c ****                       ##### RCC specific features #####
  14:./Drivers/STM32F1xx_HAL_Driver/Src/stm32f1xx_hal_rcc.c ****   ==============================================================================
  15:./Drivers/STM32F1xx_HAL_Driver/Src/stm32f1xx_hal_rcc.c ****     [..]
  16:./Drivers/STM32F1xx_HAL_Driver/Src/stm32f1xx_hal_rcc.c ****       After reset the device is running from Internal High Speed oscillator
  17:./Drivers/STM32F1xx_HAL_Driver/Src/stm32f1xx_hal_rcc.c ****       (HSI 8MHz) with Flash 0 wait state, Flash prefetch buffer is enabled,
  18:./Drivers/STM32F1xx_HAL_Driver/Src/stm32f1xx_hal_rcc.c ****       and all peripherals are off except internal SRAM, Flash and JTAG.
  19:./Drivers/STM32F1xx_HAL_Driver/Src/stm32f1xx_hal_rcc.c ****       (+) There is no prescaler on High speed (AHB) and Low speed (APB) buses;
  20:./Drivers/STM32F1xx_HAL_Driver/Src/stm32f1xx_hal_rcc.c ****           all peripherals mapped on these buses are running at HSI speed.
  21:./Drivers/STM32F1xx_HAL_Driver/Src/stm32f1xx_hal_rcc.c ****       (+) The clock for all peripherals is switched off, except the SRAM and FLASH.
  22:./Drivers/STM32F1xx_HAL_Driver/Src/stm32f1xx_hal_rcc.c ****       (+) All GPIOs are in input floating state, except the JTAG pins which
  23:./Drivers/STM32F1xx_HAL_Driver/Src/stm32f1xx_hal_rcc.c ****           are assigned to be used for debug purpose.
  24:./Drivers/STM32F1xx_HAL_Driver/Src/stm32f1xx_hal_rcc.c ****     [..] Once the device started from reset, the user application has to:
  25:./Drivers/STM32F1xx_HAL_Driver/Src/stm32f1xx_hal_rcc.c ****       (+) Configure the clock source to be used to drive the System clock
  26:./Drivers/STM32F1xx_HAL_Driver/Src/stm32f1xx_hal_rcc.c ****           (if the application needs higher frequency/performance)
  27:./Drivers/STM32F1xx_HAL_Driver/Src/stm32f1xx_hal_rcc.c ****       (+) Configure the System clock frequency and Flash settings
  28:./Drivers/STM32F1xx_HAL_Driver/Src/stm32f1xx_hal_rcc.c ****       (+) Configure the AHB and APB buses prescalers
  29:./Drivers/STM32F1xx_HAL_Driver/Src/stm32f1xx_hal_rcc.c ****       (+) Enable the clock for the peripheral(s) to be used
  30:./Drivers/STM32F1xx_HAL_Driver/Src/stm32f1xx_hal_rcc.c ****       (+) Configure the clock source(s) for peripherals whose clocks are not
  31:./Drivers/STM32F1xx_HAL_Driver/Src/stm32f1xx_hal_rcc.c ****           derived from the System clock (I2S, RTC, ADC, USB OTG FS)
  32:./Drivers/STM32F1xx_HAL_Driver/Src/stm32f1xx_hal_rcc.c **** 
ARM GAS  C:\Users\ULTIMA~1\AppData\Local\Temp\cc1JA9tE.s 			page 2


  33:./Drivers/STM32F1xx_HAL_Driver/Src/stm32f1xx_hal_rcc.c ****                       ##### RCC Limitations #####
  34:./Drivers/STM32F1xx_HAL_Driver/Src/stm32f1xx_hal_rcc.c ****   ==============================================================================
  35:./Drivers/STM32F1xx_HAL_Driver/Src/stm32f1xx_hal_rcc.c ****     [..]
  36:./Drivers/STM32F1xx_HAL_Driver/Src/stm32f1xx_hal_rcc.c ****       A delay between an RCC peripheral clock enable and the effective peripheral
  37:./Drivers/STM32F1xx_HAL_Driver/Src/stm32f1xx_hal_rcc.c ****       enabling should be taken into account in order to manage the peripheral read/write
  38:./Drivers/STM32F1xx_HAL_Driver/Src/stm32f1xx_hal_rcc.c ****       from/to registers.
  39:./Drivers/STM32F1xx_HAL_Driver/Src/stm32f1xx_hal_rcc.c ****       (+) This delay depends on the peripheral mapping.
  40:./Drivers/STM32F1xx_HAL_Driver/Src/stm32f1xx_hal_rcc.c ****         (++) AHB & APB peripherals, 1 dummy read is necessary
  41:./Drivers/STM32F1xx_HAL_Driver/Src/stm32f1xx_hal_rcc.c **** 
  42:./Drivers/STM32F1xx_HAL_Driver/Src/stm32f1xx_hal_rcc.c ****     [..]
  43:./Drivers/STM32F1xx_HAL_Driver/Src/stm32f1xx_hal_rcc.c ****       Workarounds:
  44:./Drivers/STM32F1xx_HAL_Driver/Src/stm32f1xx_hal_rcc.c ****       (#) For AHB & APB peripherals, a dummy read to the peripheral register has been
  45:./Drivers/STM32F1xx_HAL_Driver/Src/stm32f1xx_hal_rcc.c ****           inserted in each __HAL_RCC_PPP_CLK_ENABLE() macro.
  46:./Drivers/STM32F1xx_HAL_Driver/Src/stm32f1xx_hal_rcc.c **** 
  47:./Drivers/STM32F1xx_HAL_Driver/Src/stm32f1xx_hal_rcc.c ****   @endverbatim
  48:./Drivers/STM32F1xx_HAL_Driver/Src/stm32f1xx_hal_rcc.c ****   ******************************************************************************
  49:./Drivers/STM32F1xx_HAL_Driver/Src/stm32f1xx_hal_rcc.c ****   * @attention
  50:./Drivers/STM32F1xx_HAL_Driver/Src/stm32f1xx_hal_rcc.c ****   *
  51:./Drivers/STM32F1xx_HAL_Driver/Src/stm32f1xx_hal_rcc.c ****   * <h2><center>&copy; Copyright (c) 2016 STMicroelectronics.
  52:./Drivers/STM32F1xx_HAL_Driver/Src/stm32f1xx_hal_rcc.c ****   * All rights reserved.</center></h2>
  53:./Drivers/STM32F1xx_HAL_Driver/Src/stm32f1xx_hal_rcc.c ****   *
  54:./Drivers/STM32F1xx_HAL_Driver/Src/stm32f1xx_hal_rcc.c ****   * This software component is licensed by ST under BSD 3-Clause license,
  55:./Drivers/STM32F1xx_HAL_Driver/Src/stm32f1xx_hal_rcc.c ****   * the "License"; You may not use this file except in compliance with the
  56:./Drivers/STM32F1xx_HAL_Driver/Src/stm32f1xx_hal_rcc.c ****   * License. You may obtain a copy of the License at:
  57:./Drivers/STM32F1xx_HAL_Driver/Src/stm32f1xx_hal_rcc.c ****   *                        opensource.org/licenses/BSD-3-Clause
  58:./Drivers/STM32F1xx_HAL_Driver/Src/stm32f1xx_hal_rcc.c ****   *
  59:./Drivers/STM32F1xx_HAL_Driver/Src/stm32f1xx_hal_rcc.c ****   ******************************************************************************
  60:./Drivers/STM32F1xx_HAL_Driver/Src/stm32f1xx_hal_rcc.c ****   */
  61:./Drivers/STM32F1xx_HAL_Driver/Src/stm32f1xx_hal_rcc.c **** 
  62:./Drivers/STM32F1xx_HAL_Driver/Src/stm32f1xx_hal_rcc.c **** /* Includes ------------------------------------------------------------------*/
  63:./Drivers/STM32F1xx_HAL_Driver/Src/stm32f1xx_hal_rcc.c **** #include "stm32f1xx_hal.h"
  64:./Drivers/STM32F1xx_HAL_Driver/Src/stm32f1xx_hal_rcc.c **** 
  65:./Drivers/STM32F1xx_HAL_Driver/Src/stm32f1xx_hal_rcc.c **** /** @addtogroup STM32F1xx_HAL_Driver
  66:./Drivers/STM32F1xx_HAL_Driver/Src/stm32f1xx_hal_rcc.c ****   * @{
  67:./Drivers/STM32F1xx_HAL_Driver/Src/stm32f1xx_hal_rcc.c ****   */
  68:./Drivers/STM32F1xx_HAL_Driver/Src/stm32f1xx_hal_rcc.c **** 
  69:./Drivers/STM32F1xx_HAL_Driver/Src/stm32f1xx_hal_rcc.c **** /** @defgroup RCC RCC
  70:./Drivers/STM32F1xx_HAL_Driver/Src/stm32f1xx_hal_rcc.c **** * @brief RCC HAL module driver
  71:./Drivers/STM32F1xx_HAL_Driver/Src/stm32f1xx_hal_rcc.c ****   * @{
  72:./Drivers/STM32F1xx_HAL_Driver/Src/stm32f1xx_hal_rcc.c ****   */
  73:./Drivers/STM32F1xx_HAL_Driver/Src/stm32f1xx_hal_rcc.c **** 
  74:./Drivers/STM32F1xx_HAL_Driver/Src/stm32f1xx_hal_rcc.c **** #ifdef HAL_RCC_MODULE_ENABLED
  75:./Drivers/STM32F1xx_HAL_Driver/Src/stm32f1xx_hal_rcc.c **** 
  76:./Drivers/STM32F1xx_HAL_Driver/Src/stm32f1xx_hal_rcc.c **** /* Private typedef -----------------------------------------------------------*/
  77:./Drivers/STM32F1xx_HAL_Driver/Src/stm32f1xx_hal_rcc.c **** /* Private define ------------------------------------------------------------*/
  78:./Drivers/STM32F1xx_HAL_Driver/Src/stm32f1xx_hal_rcc.c **** /** @defgroup RCC_Private_Constants RCC Private Constants
  79:./Drivers/STM32F1xx_HAL_Driver/Src/stm32f1xx_hal_rcc.c ****  * @{
  80:./Drivers/STM32F1xx_HAL_Driver/Src/stm32f1xx_hal_rcc.c ****  */
  81:./Drivers/STM32F1xx_HAL_Driver/Src/stm32f1xx_hal_rcc.c **** /**
  82:./Drivers/STM32F1xx_HAL_Driver/Src/stm32f1xx_hal_rcc.c ****   * @}
  83:./Drivers/STM32F1xx_HAL_Driver/Src/stm32f1xx_hal_rcc.c ****   */
  84:./Drivers/STM32F1xx_HAL_Driver/Src/stm32f1xx_hal_rcc.c **** /* Private macro -------------------------------------------------------------*/
  85:./Drivers/STM32F1xx_HAL_Driver/Src/stm32f1xx_hal_rcc.c **** /** @defgroup RCC_Private_Macros RCC Private Macros
  86:./Drivers/STM32F1xx_HAL_Driver/Src/stm32f1xx_hal_rcc.c ****   * @{
  87:./Drivers/STM32F1xx_HAL_Driver/Src/stm32f1xx_hal_rcc.c ****   */
  88:./Drivers/STM32F1xx_HAL_Driver/Src/stm32f1xx_hal_rcc.c **** 
  89:./Drivers/STM32F1xx_HAL_Driver/Src/stm32f1xx_hal_rcc.c **** #define MCO1_CLK_ENABLE()     __HAL_RCC_GPIOA_CLK_ENABLE()
ARM GAS  C:\Users\ULTIMA~1\AppData\Local\Temp\cc1JA9tE.s 			page 3


  90:./Drivers/STM32F1xx_HAL_Driver/Src/stm32f1xx_hal_rcc.c **** #define MCO1_GPIO_PORT        GPIOA
  91:./Drivers/STM32F1xx_HAL_Driver/Src/stm32f1xx_hal_rcc.c **** #define MCO1_PIN              GPIO_PIN_8
  92:./Drivers/STM32F1xx_HAL_Driver/Src/stm32f1xx_hal_rcc.c **** 
  93:./Drivers/STM32F1xx_HAL_Driver/Src/stm32f1xx_hal_rcc.c **** /**
  94:./Drivers/STM32F1xx_HAL_Driver/Src/stm32f1xx_hal_rcc.c ****   * @}
  95:./Drivers/STM32F1xx_HAL_Driver/Src/stm32f1xx_hal_rcc.c ****   */
  96:./Drivers/STM32F1xx_HAL_Driver/Src/stm32f1xx_hal_rcc.c **** 
  97:./Drivers/STM32F1xx_HAL_Driver/Src/stm32f1xx_hal_rcc.c **** /* Private variables ---------------------------------------------------------*/
  98:./Drivers/STM32F1xx_HAL_Driver/Src/stm32f1xx_hal_rcc.c **** /** @defgroup RCC_Private_Variables RCC Private Variables
  99:./Drivers/STM32F1xx_HAL_Driver/Src/stm32f1xx_hal_rcc.c ****   * @{
 100:./Drivers/STM32F1xx_HAL_Driver/Src/stm32f1xx_hal_rcc.c ****   */
 101:./Drivers/STM32F1xx_HAL_Driver/Src/stm32f1xx_hal_rcc.c **** /**
 102:./Drivers/STM32F1xx_HAL_Driver/Src/stm32f1xx_hal_rcc.c ****   * @}
 103:./Drivers/STM32F1xx_HAL_Driver/Src/stm32f1xx_hal_rcc.c ****   */
 104:./Drivers/STM32F1xx_HAL_Driver/Src/stm32f1xx_hal_rcc.c **** 
 105:./Drivers/STM32F1xx_HAL_Driver/Src/stm32f1xx_hal_rcc.c **** /* Private function prototypes -----------------------------------------------*/
 106:./Drivers/STM32F1xx_HAL_Driver/Src/stm32f1xx_hal_rcc.c **** static void RCC_Delay(uint32_t mdelay);
 107:./Drivers/STM32F1xx_HAL_Driver/Src/stm32f1xx_hal_rcc.c **** 
 108:./Drivers/STM32F1xx_HAL_Driver/Src/stm32f1xx_hal_rcc.c **** /* Exported functions --------------------------------------------------------*/
 109:./Drivers/STM32F1xx_HAL_Driver/Src/stm32f1xx_hal_rcc.c **** 
 110:./Drivers/STM32F1xx_HAL_Driver/Src/stm32f1xx_hal_rcc.c **** /** @defgroup RCC_Exported_Functions RCC Exported Functions
 111:./Drivers/STM32F1xx_HAL_Driver/Src/stm32f1xx_hal_rcc.c ****   * @{
 112:./Drivers/STM32F1xx_HAL_Driver/Src/stm32f1xx_hal_rcc.c ****   */
 113:./Drivers/STM32F1xx_HAL_Driver/Src/stm32f1xx_hal_rcc.c **** 
 114:./Drivers/STM32F1xx_HAL_Driver/Src/stm32f1xx_hal_rcc.c **** /** @defgroup RCC_Exported_Functions_Group1 Initialization and de-initialization functions
 115:./Drivers/STM32F1xx_HAL_Driver/Src/stm32f1xx_hal_rcc.c ****   *  @brief    Initialization and Configuration functions
 116:./Drivers/STM32F1xx_HAL_Driver/Src/stm32f1xx_hal_rcc.c ****   *
 117:./Drivers/STM32F1xx_HAL_Driver/Src/stm32f1xx_hal_rcc.c ****   @verbatim
 118:./Drivers/STM32F1xx_HAL_Driver/Src/stm32f1xx_hal_rcc.c ****   ===============================================================================
 119:./Drivers/STM32F1xx_HAL_Driver/Src/stm32f1xx_hal_rcc.c ****            ##### Initialization and de-initialization functions #####
 120:./Drivers/STM32F1xx_HAL_Driver/Src/stm32f1xx_hal_rcc.c ****   ===============================================================================
 121:./Drivers/STM32F1xx_HAL_Driver/Src/stm32f1xx_hal_rcc.c ****     [..]
 122:./Drivers/STM32F1xx_HAL_Driver/Src/stm32f1xx_hal_rcc.c ****       This section provides functions allowing to configure the internal/external oscillators
 123:./Drivers/STM32F1xx_HAL_Driver/Src/stm32f1xx_hal_rcc.c ****       (HSE, HSI, LSE, LSI, PLL, CSS and MCO) and the System buses clocks (SYSCLK, AHB, APB1
 124:./Drivers/STM32F1xx_HAL_Driver/Src/stm32f1xx_hal_rcc.c ****       and APB2).
 125:./Drivers/STM32F1xx_HAL_Driver/Src/stm32f1xx_hal_rcc.c **** 
 126:./Drivers/STM32F1xx_HAL_Driver/Src/stm32f1xx_hal_rcc.c ****     [..] Internal/external clock and PLL configuration
 127:./Drivers/STM32F1xx_HAL_Driver/Src/stm32f1xx_hal_rcc.c ****       (#) HSI (high-speed internal), 8 MHz factory-trimmed RC used directly or through
 128:./Drivers/STM32F1xx_HAL_Driver/Src/stm32f1xx_hal_rcc.c ****           the PLL as System clock source.
 129:./Drivers/STM32F1xx_HAL_Driver/Src/stm32f1xx_hal_rcc.c ****       (#) LSI (low-speed internal), ~40 KHz low consumption RC used as IWDG and/or RTC
 130:./Drivers/STM32F1xx_HAL_Driver/Src/stm32f1xx_hal_rcc.c ****           clock source.
 131:./Drivers/STM32F1xx_HAL_Driver/Src/stm32f1xx_hal_rcc.c **** 
 132:./Drivers/STM32F1xx_HAL_Driver/Src/stm32f1xx_hal_rcc.c ****       (#) HSE (high-speed external), 4 to 24 MHz (STM32F100xx) or 4 to 16 MHz (STM32F101x/STM32F102
 133:./Drivers/STM32F1xx_HAL_Driver/Src/stm32f1xx_hal_rcc.c ****           through the PLL as System clock source. Can be used also as RTC clock source.
 134:./Drivers/STM32F1xx_HAL_Driver/Src/stm32f1xx_hal_rcc.c **** 
 135:./Drivers/STM32F1xx_HAL_Driver/Src/stm32f1xx_hal_rcc.c ****       (#) LSE (low-speed external), 32 KHz oscillator used as RTC clock source.
 136:./Drivers/STM32F1xx_HAL_Driver/Src/stm32f1xx_hal_rcc.c **** 
 137:./Drivers/STM32F1xx_HAL_Driver/Src/stm32f1xx_hal_rcc.c ****       (#) PLL (clocked by HSI or HSE), featuring different output clocks:
 138:./Drivers/STM32F1xx_HAL_Driver/Src/stm32f1xx_hal_rcc.c ****         (++) The first output is used to generate the high speed system clock (up to 72 MHz for STM
 139:./Drivers/STM32F1xx_HAL_Driver/Src/stm32f1xx_hal_rcc.c ****         (++) The second output is used to generate the clock for the USB OTG FS (48 MHz)
 140:./Drivers/STM32F1xx_HAL_Driver/Src/stm32f1xx_hal_rcc.c **** 
 141:./Drivers/STM32F1xx_HAL_Driver/Src/stm32f1xx_hal_rcc.c ****       (#) CSS (Clock security system), once enable using the macro __HAL_RCC_CSS_ENABLE()
 142:./Drivers/STM32F1xx_HAL_Driver/Src/stm32f1xx_hal_rcc.c ****           and if a HSE clock failure occurs(HSE used directly or through PLL as System
 143:./Drivers/STM32F1xx_HAL_Driver/Src/stm32f1xx_hal_rcc.c ****           clock source), the System clocks automatically switched to HSI and an interrupt
 144:./Drivers/STM32F1xx_HAL_Driver/Src/stm32f1xx_hal_rcc.c ****           is generated if enabled. The interrupt is linked to the Cortex-M3 NMI
 145:./Drivers/STM32F1xx_HAL_Driver/Src/stm32f1xx_hal_rcc.c ****           (Non-Maskable Interrupt) exception vector.
 146:./Drivers/STM32F1xx_HAL_Driver/Src/stm32f1xx_hal_rcc.c **** 
ARM GAS  C:\Users\ULTIMA~1\AppData\Local\Temp\cc1JA9tE.s 			page 4


 147:./Drivers/STM32F1xx_HAL_Driver/Src/stm32f1xx_hal_rcc.c ****       (#) MCO1 (microcontroller clock output), used to output SYSCLK, HSI,
 148:./Drivers/STM32F1xx_HAL_Driver/Src/stm32f1xx_hal_rcc.c ****           HSE or PLL clock (divided by 2) on PA8 pin + PLL2CLK, PLL3CLK/2, PLL3CLK and XTI for STM3
 149:./Drivers/STM32F1xx_HAL_Driver/Src/stm32f1xx_hal_rcc.c **** 
 150:./Drivers/STM32F1xx_HAL_Driver/Src/stm32f1xx_hal_rcc.c ****     [..] System, AHB and APB buses clocks configuration
 151:./Drivers/STM32F1xx_HAL_Driver/Src/stm32f1xx_hal_rcc.c ****       (#) Several clock sources can be used to drive the System clock (SYSCLK): HSI,
 152:./Drivers/STM32F1xx_HAL_Driver/Src/stm32f1xx_hal_rcc.c ****           HSE and PLL.
 153:./Drivers/STM32F1xx_HAL_Driver/Src/stm32f1xx_hal_rcc.c ****           The AHB clock (HCLK) is derived from System clock through configurable
 154:./Drivers/STM32F1xx_HAL_Driver/Src/stm32f1xx_hal_rcc.c ****           prescaler and used to clock the CPU, memory and peripherals mapped
 155:./Drivers/STM32F1xx_HAL_Driver/Src/stm32f1xx_hal_rcc.c ****           on AHB bus (DMA, GPIO...). APB1 (PCLK1) and APB2 (PCLK2) clocks are derived
 156:./Drivers/STM32F1xx_HAL_Driver/Src/stm32f1xx_hal_rcc.c ****           from AHB clock through configurable prescalers and used to clock
 157:./Drivers/STM32F1xx_HAL_Driver/Src/stm32f1xx_hal_rcc.c ****           the peripherals mapped on these buses. You can use
 158:./Drivers/STM32F1xx_HAL_Driver/Src/stm32f1xx_hal_rcc.c ****           "@ref HAL_RCC_GetSysClockFreq()" function to retrieve the frequencies of these clocks.
 159:./Drivers/STM32F1xx_HAL_Driver/Src/stm32f1xx_hal_rcc.c **** 
 160:./Drivers/STM32F1xx_HAL_Driver/Src/stm32f1xx_hal_rcc.c ****       -@- All the peripheral clocks are derived from the System clock (SYSCLK) except:
 161:./Drivers/STM32F1xx_HAL_Driver/Src/stm32f1xx_hal_rcc.c ****           (+@) RTC: RTC clock can be derived either from the LSI, LSE or HSE clock
 162:./Drivers/STM32F1xx_HAL_Driver/Src/stm32f1xx_hal_rcc.c ****               divided by 128.
 163:./Drivers/STM32F1xx_HAL_Driver/Src/stm32f1xx_hal_rcc.c ****           (+@) USB OTG FS and RTC: USB OTG FS require a frequency equal to 48 MHz
 164:./Drivers/STM32F1xx_HAL_Driver/Src/stm32f1xx_hal_rcc.c ****               to work correctly. This clock is derived of the main PLL through PLL Multiplier.
 165:./Drivers/STM32F1xx_HAL_Driver/Src/stm32f1xx_hal_rcc.c ****           (+@) I2S interface on STM32F105x/STM32F107x can be derived from PLL3CLK
 166:./Drivers/STM32F1xx_HAL_Driver/Src/stm32f1xx_hal_rcc.c ****           (+@) IWDG clock which is always the LSI clock.
 167:./Drivers/STM32F1xx_HAL_Driver/Src/stm32f1xx_hal_rcc.c **** 
 168:./Drivers/STM32F1xx_HAL_Driver/Src/stm32f1xx_hal_rcc.c ****       (#) For STM32F10xxx, the maximum frequency of the SYSCLK and HCLK/PCLK2 is 72 MHz, PCLK1 36 M
 169:./Drivers/STM32F1xx_HAL_Driver/Src/stm32f1xx_hal_rcc.c ****           For STM32F100xx, the maximum frequency of the SYSCLK and HCLK/PCLK1/PCLK2 is 24 MHz.
 170:./Drivers/STM32F1xx_HAL_Driver/Src/stm32f1xx_hal_rcc.c ****           Depending on the SYSCLK frequency, the flash latency should be adapted accordingly.
 171:./Drivers/STM32F1xx_HAL_Driver/Src/stm32f1xx_hal_rcc.c ****   @endverbatim
 172:./Drivers/STM32F1xx_HAL_Driver/Src/stm32f1xx_hal_rcc.c ****   * @{
 173:./Drivers/STM32F1xx_HAL_Driver/Src/stm32f1xx_hal_rcc.c ****   */
 174:./Drivers/STM32F1xx_HAL_Driver/Src/stm32f1xx_hal_rcc.c **** 
 175:./Drivers/STM32F1xx_HAL_Driver/Src/stm32f1xx_hal_rcc.c **** /*
 176:./Drivers/STM32F1xx_HAL_Driver/Src/stm32f1xx_hal_rcc.c ****   Additional consideration on the SYSCLK based on Latency settings:
 177:./Drivers/STM32F1xx_HAL_Driver/Src/stm32f1xx_hal_rcc.c ****         +-----------------------------------------------+
 178:./Drivers/STM32F1xx_HAL_Driver/Src/stm32f1xx_hal_rcc.c ****         | Latency       | SYSCLK clock frequency (MHz)  |
 179:./Drivers/STM32F1xx_HAL_Driver/Src/stm32f1xx_hal_rcc.c ****         |---------------|-------------------------------|
 180:./Drivers/STM32F1xx_HAL_Driver/Src/stm32f1xx_hal_rcc.c ****         |0WS(1CPU cycle)|       0 < SYSCLK <= 24        |
 181:./Drivers/STM32F1xx_HAL_Driver/Src/stm32f1xx_hal_rcc.c ****         |---------------|-------------------------------|
 182:./Drivers/STM32F1xx_HAL_Driver/Src/stm32f1xx_hal_rcc.c ****         |1WS(2CPU cycle)|      24 < SYSCLK <= 48        |
 183:./Drivers/STM32F1xx_HAL_Driver/Src/stm32f1xx_hal_rcc.c ****         |---------------|-------------------------------|
 184:./Drivers/STM32F1xx_HAL_Driver/Src/stm32f1xx_hal_rcc.c ****         |2WS(3CPU cycle)|      48 < SYSCLK <= 72        |
 185:./Drivers/STM32F1xx_HAL_Driver/Src/stm32f1xx_hal_rcc.c ****         +-----------------------------------------------+
 186:./Drivers/STM32F1xx_HAL_Driver/Src/stm32f1xx_hal_rcc.c ****   */
 187:./Drivers/STM32F1xx_HAL_Driver/Src/stm32f1xx_hal_rcc.c **** 
 188:./Drivers/STM32F1xx_HAL_Driver/Src/stm32f1xx_hal_rcc.c **** /**
 189:./Drivers/STM32F1xx_HAL_Driver/Src/stm32f1xx_hal_rcc.c ****   * @brief  Resets the RCC clock configuration to the default reset state.
 190:./Drivers/STM32F1xx_HAL_Driver/Src/stm32f1xx_hal_rcc.c ****   * @note   The default reset state of the clock configuration is given below:
 191:./Drivers/STM32F1xx_HAL_Driver/Src/stm32f1xx_hal_rcc.c ****   *            - HSI ON and used as system clock source
 192:./Drivers/STM32F1xx_HAL_Driver/Src/stm32f1xx_hal_rcc.c ****   *            - HSE, PLL, PLL2 and PLL3 are OFF
 193:./Drivers/STM32F1xx_HAL_Driver/Src/stm32f1xx_hal_rcc.c ****   *            - AHB, APB1 and APB2 prescaler set to 1.
 194:./Drivers/STM32F1xx_HAL_Driver/Src/stm32f1xx_hal_rcc.c ****   *            - CSS and MCO1 OFF
 195:./Drivers/STM32F1xx_HAL_Driver/Src/stm32f1xx_hal_rcc.c ****   *            - All interrupts disabled
 196:./Drivers/STM32F1xx_HAL_Driver/Src/stm32f1xx_hal_rcc.c ****   *            - All flags are cleared
 197:./Drivers/STM32F1xx_HAL_Driver/Src/stm32f1xx_hal_rcc.c ****   * @note   This function does not modify the configuration of the
 198:./Drivers/STM32F1xx_HAL_Driver/Src/stm32f1xx_hal_rcc.c ****   *            - Peripheral clocks
 199:./Drivers/STM32F1xx_HAL_Driver/Src/stm32f1xx_hal_rcc.c ****   *            - LSI, LSE and RTC clocks
 200:./Drivers/STM32F1xx_HAL_Driver/Src/stm32f1xx_hal_rcc.c ****   * @retval HAL_StatusTypeDef
 201:./Drivers/STM32F1xx_HAL_Driver/Src/stm32f1xx_hal_rcc.c ****   */
 202:./Drivers/STM32F1xx_HAL_Driver/Src/stm32f1xx_hal_rcc.c **** HAL_StatusTypeDef HAL_RCC_DeInit(void)
 203:./Drivers/STM32F1xx_HAL_Driver/Src/stm32f1xx_hal_rcc.c **** {
ARM GAS  C:\Users\ULTIMA~1\AppData\Local\Temp\cc1JA9tE.s 			page 5


  27              		.loc 1 203 1
  28              		.cfi_startproc
  29              		@ args = 0, pretend = 0, frame = 8
  30              		@ frame_needed = 1, uses_anonymous_args = 0
  31 0000 80B5     		push	{r7, lr}
  32              		.cfi_def_cfa_offset 8
  33              		.cfi_offset 7, -8
  34              		.cfi_offset 14, -4
  35 0002 82B0     		sub	sp, sp, #8
  36              		.cfi_def_cfa_offset 16
  37 0004 00AF     		add	r7, sp, #0
  38              		.cfi_def_cfa_register 7
 204:./Drivers/STM32F1xx_HAL_Driver/Src/stm32f1xx_hal_rcc.c ****   uint32_t tickstart;
 205:./Drivers/STM32F1xx_HAL_Driver/Src/stm32f1xx_hal_rcc.c **** 
 206:./Drivers/STM32F1xx_HAL_Driver/Src/stm32f1xx_hal_rcc.c ****   /* Get Start Tick */
 207:./Drivers/STM32F1xx_HAL_Driver/Src/stm32f1xx_hal_rcc.c ****   tickstart = HAL_GetTick();
  39              		.loc 1 207 15
  40 0006 FFF7FEFF 		bl	HAL_GetTick
  41 000a 7860     		str	r0, [r7, #4]
 208:./Drivers/STM32F1xx_HAL_Driver/Src/stm32f1xx_hal_rcc.c **** 
 209:./Drivers/STM32F1xx_HAL_Driver/Src/stm32f1xx_hal_rcc.c ****   /* Set HSION bit */
 210:./Drivers/STM32F1xx_HAL_Driver/Src/stm32f1xx_hal_rcc.c ****   SET_BIT(RCC->CR, RCC_CR_HSION);
  42              		.loc 1 210 3
  43 000c 454B     		ldr	r3, .L12
  44 000e 1B68     		ldr	r3, [r3]
  45 0010 444A     		ldr	r2, .L12
  46 0012 43F00103 		orr	r3, r3, #1
  47 0016 1360     		str	r3, [r2]
 211:./Drivers/STM32F1xx_HAL_Driver/Src/stm32f1xx_hal_rcc.c **** 
 212:./Drivers/STM32F1xx_HAL_Driver/Src/stm32f1xx_hal_rcc.c ****   /* Wait till HSI is ready */
 213:./Drivers/STM32F1xx_HAL_Driver/Src/stm32f1xx_hal_rcc.c ****   while (READ_BIT(RCC->CR, RCC_CR_HSIRDY) == RESET)
  48              		.loc 1 213 9
  49 0018 08E0     		b	.L2
  50              	.L4:
 214:./Drivers/STM32F1xx_HAL_Driver/Src/stm32f1xx_hal_rcc.c ****   {
 215:./Drivers/STM32F1xx_HAL_Driver/Src/stm32f1xx_hal_rcc.c ****     if ((HAL_GetTick() - tickstart) > HSI_TIMEOUT_VALUE)
  51              		.loc 1 215 10
  52 001a FFF7FEFF 		bl	HAL_GetTick
  53 001e 0246     		mov	r2, r0
  54              		.loc 1 215 24
  55 0020 7B68     		ldr	r3, [r7, #4]
  56 0022 D31A     		subs	r3, r2, r3
  57              		.loc 1 215 8
  58 0024 022B     		cmp	r3, #2
  59 0026 01D9     		bls	.L2
 216:./Drivers/STM32F1xx_HAL_Driver/Src/stm32f1xx_hal_rcc.c ****     {
 217:./Drivers/STM32F1xx_HAL_Driver/Src/stm32f1xx_hal_rcc.c ****       return HAL_TIMEOUT;
  60              		.loc 1 217 14
  61 0028 0323     		movs	r3, #3
  62 002a 77E0     		b	.L3
  63              	.L2:
 213:./Drivers/STM32F1xx_HAL_Driver/Src/stm32f1xx_hal_rcc.c ****   {
  64              		.loc 1 213 10
  65 002c 3D4B     		ldr	r3, .L12
  66 002e 1B68     		ldr	r3, [r3]
  67 0030 03F00203 		and	r3, r3, #2
 213:./Drivers/STM32F1xx_HAL_Driver/Src/stm32f1xx_hal_rcc.c ****   {
ARM GAS  C:\Users\ULTIMA~1\AppData\Local\Temp\cc1JA9tE.s 			page 6


  68              		.loc 1 213 9
  69 0034 002B     		cmp	r3, #0
  70 0036 F0D0     		beq	.L4
 218:./Drivers/STM32F1xx_HAL_Driver/Src/stm32f1xx_hal_rcc.c ****     }
 219:./Drivers/STM32F1xx_HAL_Driver/Src/stm32f1xx_hal_rcc.c ****   }
 220:./Drivers/STM32F1xx_HAL_Driver/Src/stm32f1xx_hal_rcc.c **** 
 221:./Drivers/STM32F1xx_HAL_Driver/Src/stm32f1xx_hal_rcc.c ****   /* Set HSITRIM bits to the reset value */
 222:./Drivers/STM32F1xx_HAL_Driver/Src/stm32f1xx_hal_rcc.c ****   MODIFY_REG(RCC->CR, RCC_CR_HSITRIM, (0x10U << RCC_CR_HSITRIM_Pos));
  71              		.loc 1 222 3
  72 0038 3A4B     		ldr	r3, .L12
  73 003a 1B68     		ldr	r3, [r3]
  74 003c 23F0F803 		bic	r3, r3, #248
  75 0040 384A     		ldr	r2, .L12
  76 0042 43F08003 		orr	r3, r3, #128
  77 0046 1360     		str	r3, [r2]
 223:./Drivers/STM32F1xx_HAL_Driver/Src/stm32f1xx_hal_rcc.c **** 
 224:./Drivers/STM32F1xx_HAL_Driver/Src/stm32f1xx_hal_rcc.c ****   /* Get Start Tick */
 225:./Drivers/STM32F1xx_HAL_Driver/Src/stm32f1xx_hal_rcc.c ****   tickstart = HAL_GetTick();
  78              		.loc 1 225 15
  79 0048 FFF7FEFF 		bl	HAL_GetTick
  80 004c 7860     		str	r0, [r7, #4]
 226:./Drivers/STM32F1xx_HAL_Driver/Src/stm32f1xx_hal_rcc.c **** 
 227:./Drivers/STM32F1xx_HAL_Driver/Src/stm32f1xx_hal_rcc.c ****   /* Reset CFGR register */
 228:./Drivers/STM32F1xx_HAL_Driver/Src/stm32f1xx_hal_rcc.c ****   CLEAR_REG(RCC->CFGR);
  81              		.loc 1 228 3
  82 004e 354B     		ldr	r3, .L12
  83 0050 0022     		movs	r2, #0
  84 0052 5A60     		str	r2, [r3, #4]
 229:./Drivers/STM32F1xx_HAL_Driver/Src/stm32f1xx_hal_rcc.c **** 
 230:./Drivers/STM32F1xx_HAL_Driver/Src/stm32f1xx_hal_rcc.c ****   /* Wait till clock switch is ready */
 231:./Drivers/STM32F1xx_HAL_Driver/Src/stm32f1xx_hal_rcc.c ****   while (READ_BIT(RCC->CFGR, RCC_CFGR_SWS) != RESET)
  85              		.loc 1 231 9
  86 0054 0AE0     		b	.L5
  87              	.L6:
 232:./Drivers/STM32F1xx_HAL_Driver/Src/stm32f1xx_hal_rcc.c ****   {
 233:./Drivers/STM32F1xx_HAL_Driver/Src/stm32f1xx_hal_rcc.c ****     if ((HAL_GetTick() - tickstart) > CLOCKSWITCH_TIMEOUT_VALUE)
  88              		.loc 1 233 10
  89 0056 FFF7FEFF 		bl	HAL_GetTick
  90 005a 0246     		mov	r2, r0
  91              		.loc 1 233 24
  92 005c 7B68     		ldr	r3, [r7, #4]
  93 005e D31A     		subs	r3, r2, r3
  94              		.loc 1 233 8
  95 0060 41F28832 		movw	r2, #5000
  96 0064 9342     		cmp	r3, r2
  97 0066 01D9     		bls	.L5
 234:./Drivers/STM32F1xx_HAL_Driver/Src/stm32f1xx_hal_rcc.c ****     {
 235:./Drivers/STM32F1xx_HAL_Driver/Src/stm32f1xx_hal_rcc.c ****       return HAL_TIMEOUT;
  98              		.loc 1 235 14
  99 0068 0323     		movs	r3, #3
 100 006a 57E0     		b	.L3
 101              	.L5:
 231:./Drivers/STM32F1xx_HAL_Driver/Src/stm32f1xx_hal_rcc.c ****   {
 102              		.loc 1 231 10
 103 006c 2D4B     		ldr	r3, .L12
 104 006e 5B68     		ldr	r3, [r3, #4]
 105 0070 03F00C03 		and	r3, r3, #12
ARM GAS  C:\Users\ULTIMA~1\AppData\Local\Temp\cc1JA9tE.s 			page 7


 231:./Drivers/STM32F1xx_HAL_Driver/Src/stm32f1xx_hal_rcc.c ****   {
 106              		.loc 1 231 9
 107 0074 002B     		cmp	r3, #0
 108 0076 EED1     		bne	.L6
 236:./Drivers/STM32F1xx_HAL_Driver/Src/stm32f1xx_hal_rcc.c ****     }
 237:./Drivers/STM32F1xx_HAL_Driver/Src/stm32f1xx_hal_rcc.c ****   }
 238:./Drivers/STM32F1xx_HAL_Driver/Src/stm32f1xx_hal_rcc.c **** 
 239:./Drivers/STM32F1xx_HAL_Driver/Src/stm32f1xx_hal_rcc.c ****   /* Update the SystemCoreClock global variable */
 240:./Drivers/STM32F1xx_HAL_Driver/Src/stm32f1xx_hal_rcc.c ****   SystemCoreClock = HSI_VALUE;
 109              		.loc 1 240 19
 110 0078 2B4B     		ldr	r3, .L12+4
 111 007a 2C4A     		ldr	r2, .L12+8
 112 007c 1A60     		str	r2, [r3]
 241:./Drivers/STM32F1xx_HAL_Driver/Src/stm32f1xx_hal_rcc.c **** 
 242:./Drivers/STM32F1xx_HAL_Driver/Src/stm32f1xx_hal_rcc.c ****   /* Adapt Systick interrupt period */
 243:./Drivers/STM32F1xx_HAL_Driver/Src/stm32f1xx_hal_rcc.c ****   if (HAL_InitTick(uwTickPrio) != HAL_OK)
 113              		.loc 1 243 7
 114 007e 2C4B     		ldr	r3, .L12+12
 115 0080 1B68     		ldr	r3, [r3]
 116 0082 1846     		mov	r0, r3
 117 0084 FFF7FEFF 		bl	HAL_InitTick
 118 0088 0346     		mov	r3, r0
 119              		.loc 1 243 6
 120 008a 002B     		cmp	r3, #0
 121 008c 01D0     		beq	.L7
 244:./Drivers/STM32F1xx_HAL_Driver/Src/stm32f1xx_hal_rcc.c ****   {
 245:./Drivers/STM32F1xx_HAL_Driver/Src/stm32f1xx_hal_rcc.c ****     return HAL_ERROR;
 122              		.loc 1 245 12
 123 008e 0123     		movs	r3, #1
 124 0090 44E0     		b	.L3
 125              	.L7:
 246:./Drivers/STM32F1xx_HAL_Driver/Src/stm32f1xx_hal_rcc.c ****   }
 247:./Drivers/STM32F1xx_HAL_Driver/Src/stm32f1xx_hal_rcc.c **** 
 248:./Drivers/STM32F1xx_HAL_Driver/Src/stm32f1xx_hal_rcc.c ****   /* Get Start Tick */
 249:./Drivers/STM32F1xx_HAL_Driver/Src/stm32f1xx_hal_rcc.c ****   tickstart = HAL_GetTick();
 126              		.loc 1 249 15
 127 0092 FFF7FEFF 		bl	HAL_GetTick
 128 0096 7860     		str	r0, [r7, #4]
 250:./Drivers/STM32F1xx_HAL_Driver/Src/stm32f1xx_hal_rcc.c **** 
 251:./Drivers/STM32F1xx_HAL_Driver/Src/stm32f1xx_hal_rcc.c ****   /* Second step is to clear PLLON bit */
 252:./Drivers/STM32F1xx_HAL_Driver/Src/stm32f1xx_hal_rcc.c ****   CLEAR_BIT(RCC->CR, RCC_CR_PLLON);
 129              		.loc 1 252 3
 130 0098 224B     		ldr	r3, .L12
 131 009a 1B68     		ldr	r3, [r3]
 132 009c 214A     		ldr	r2, .L12
 133 009e 23F08073 		bic	r3, r3, #16777216
 134 00a2 1360     		str	r3, [r2]
 253:./Drivers/STM32F1xx_HAL_Driver/Src/stm32f1xx_hal_rcc.c **** 
 254:./Drivers/STM32F1xx_HAL_Driver/Src/stm32f1xx_hal_rcc.c ****   /* Wait till PLL is disabled */
 255:./Drivers/STM32F1xx_HAL_Driver/Src/stm32f1xx_hal_rcc.c ****   while (READ_BIT(RCC->CR, RCC_CR_PLLRDY) != RESET)
 135              		.loc 1 255 9
 136 00a4 08E0     		b	.L8
 137              	.L9:
 256:./Drivers/STM32F1xx_HAL_Driver/Src/stm32f1xx_hal_rcc.c ****   {
 257:./Drivers/STM32F1xx_HAL_Driver/Src/stm32f1xx_hal_rcc.c ****     if ((HAL_GetTick() - tickstart) > PLL_TIMEOUT_VALUE)
 138              		.loc 1 257 10
 139 00a6 FFF7FEFF 		bl	HAL_GetTick
ARM GAS  C:\Users\ULTIMA~1\AppData\Local\Temp\cc1JA9tE.s 			page 8


 140 00aa 0246     		mov	r2, r0
 141              		.loc 1 257 24
 142 00ac 7B68     		ldr	r3, [r7, #4]
 143 00ae D31A     		subs	r3, r2, r3
 144              		.loc 1 257 8
 145 00b0 022B     		cmp	r3, #2
 146 00b2 01D9     		bls	.L8
 258:./Drivers/STM32F1xx_HAL_Driver/Src/stm32f1xx_hal_rcc.c ****     {
 259:./Drivers/STM32F1xx_HAL_Driver/Src/stm32f1xx_hal_rcc.c ****       return HAL_TIMEOUT;
 147              		.loc 1 259 14
 148 00b4 0323     		movs	r3, #3
 149 00b6 31E0     		b	.L3
 150              	.L8:
 255:./Drivers/STM32F1xx_HAL_Driver/Src/stm32f1xx_hal_rcc.c ****   {
 151              		.loc 1 255 10
 152 00b8 1A4B     		ldr	r3, .L12
 153 00ba 1B68     		ldr	r3, [r3]
 154 00bc 03F00073 		and	r3, r3, #33554432
 255:./Drivers/STM32F1xx_HAL_Driver/Src/stm32f1xx_hal_rcc.c ****   {
 155              		.loc 1 255 9
 156 00c0 002B     		cmp	r3, #0
 157 00c2 F0D1     		bne	.L9
 260:./Drivers/STM32F1xx_HAL_Driver/Src/stm32f1xx_hal_rcc.c ****     }
 261:./Drivers/STM32F1xx_HAL_Driver/Src/stm32f1xx_hal_rcc.c ****   }
 262:./Drivers/STM32F1xx_HAL_Driver/Src/stm32f1xx_hal_rcc.c **** 
 263:./Drivers/STM32F1xx_HAL_Driver/Src/stm32f1xx_hal_rcc.c ****   /* Ensure to reset PLLSRC and PLLMUL bits */
 264:./Drivers/STM32F1xx_HAL_Driver/Src/stm32f1xx_hal_rcc.c ****   CLEAR_REG(RCC->CFGR);
 158              		.loc 1 264 3
 159 00c4 174B     		ldr	r3, .L12
 160 00c6 0022     		movs	r2, #0
 161 00c8 5A60     		str	r2, [r3, #4]
 265:./Drivers/STM32F1xx_HAL_Driver/Src/stm32f1xx_hal_rcc.c **** 
 266:./Drivers/STM32F1xx_HAL_Driver/Src/stm32f1xx_hal_rcc.c ****   /* Get Start Tick */
 267:./Drivers/STM32F1xx_HAL_Driver/Src/stm32f1xx_hal_rcc.c ****   tickstart = HAL_GetTick();
 162              		.loc 1 267 15
 163 00ca FFF7FEFF 		bl	HAL_GetTick
 164 00ce 7860     		str	r0, [r7, #4]
 268:./Drivers/STM32F1xx_HAL_Driver/Src/stm32f1xx_hal_rcc.c **** 
 269:./Drivers/STM32F1xx_HAL_Driver/Src/stm32f1xx_hal_rcc.c ****   /* Reset HSEON & CSSON bits */
 270:./Drivers/STM32F1xx_HAL_Driver/Src/stm32f1xx_hal_rcc.c ****   CLEAR_BIT(RCC->CR, RCC_CR_HSEON | RCC_CR_CSSON);
 165              		.loc 1 270 3
 166 00d0 144B     		ldr	r3, .L12
 167 00d2 1B68     		ldr	r3, [r3]
 168 00d4 134A     		ldr	r2, .L12
 169 00d6 23F41023 		bic	r3, r3, #589824
 170 00da 1360     		str	r3, [r2]
 271:./Drivers/STM32F1xx_HAL_Driver/Src/stm32f1xx_hal_rcc.c **** 
 272:./Drivers/STM32F1xx_HAL_Driver/Src/stm32f1xx_hal_rcc.c ****   /* Wait till HSE is disabled */
 273:./Drivers/STM32F1xx_HAL_Driver/Src/stm32f1xx_hal_rcc.c ****   while (READ_BIT(RCC->CR, RCC_CR_HSERDY) != RESET)
 171              		.loc 1 273 9
 172 00dc 08E0     		b	.L10
 173              	.L11:
 274:./Drivers/STM32F1xx_HAL_Driver/Src/stm32f1xx_hal_rcc.c ****   {
 275:./Drivers/STM32F1xx_HAL_Driver/Src/stm32f1xx_hal_rcc.c ****     if ((HAL_GetTick() - tickstart) > HSE_TIMEOUT_VALUE)
 174              		.loc 1 275 10
 175 00de FFF7FEFF 		bl	HAL_GetTick
 176 00e2 0246     		mov	r2, r0
ARM GAS  C:\Users\ULTIMA~1\AppData\Local\Temp\cc1JA9tE.s 			page 9


 177              		.loc 1 275 24
 178 00e4 7B68     		ldr	r3, [r7, #4]
 179 00e6 D31A     		subs	r3, r2, r3
 180              		.loc 1 275 8
 181 00e8 642B     		cmp	r3, #100
 182 00ea 01D9     		bls	.L10
 276:./Drivers/STM32F1xx_HAL_Driver/Src/stm32f1xx_hal_rcc.c ****     {
 277:./Drivers/STM32F1xx_HAL_Driver/Src/stm32f1xx_hal_rcc.c ****       return HAL_TIMEOUT;
 183              		.loc 1 277 14
 184 00ec 0323     		movs	r3, #3
 185 00ee 15E0     		b	.L3
 186              	.L10:
 273:./Drivers/STM32F1xx_HAL_Driver/Src/stm32f1xx_hal_rcc.c ****   {
 187              		.loc 1 273 10
 188 00f0 0C4B     		ldr	r3, .L12
 189 00f2 1B68     		ldr	r3, [r3]
 190 00f4 03F40033 		and	r3, r3, #131072
 273:./Drivers/STM32F1xx_HAL_Driver/Src/stm32f1xx_hal_rcc.c ****   {
 191              		.loc 1 273 9
 192 00f8 002B     		cmp	r3, #0
 193 00fa F0D1     		bne	.L11
 278:./Drivers/STM32F1xx_HAL_Driver/Src/stm32f1xx_hal_rcc.c ****     }
 279:./Drivers/STM32F1xx_HAL_Driver/Src/stm32f1xx_hal_rcc.c ****   }
 280:./Drivers/STM32F1xx_HAL_Driver/Src/stm32f1xx_hal_rcc.c **** 
 281:./Drivers/STM32F1xx_HAL_Driver/Src/stm32f1xx_hal_rcc.c ****   /* Reset HSEBYP bit */
 282:./Drivers/STM32F1xx_HAL_Driver/Src/stm32f1xx_hal_rcc.c ****   CLEAR_BIT(RCC->CR, RCC_CR_HSEBYP);
 194              		.loc 1 282 3
 195 00fc 094B     		ldr	r3, .L12
 196 00fe 1B68     		ldr	r3, [r3]
 197 0100 084A     		ldr	r2, .L12
 198 0102 23F48023 		bic	r3, r3, #262144
 199 0106 1360     		str	r3, [r2]
 283:./Drivers/STM32F1xx_HAL_Driver/Src/stm32f1xx_hal_rcc.c **** 
 284:./Drivers/STM32F1xx_HAL_Driver/Src/stm32f1xx_hal_rcc.c **** #if defined(RCC_PLL2_SUPPORT)
 285:./Drivers/STM32F1xx_HAL_Driver/Src/stm32f1xx_hal_rcc.c ****   /* Get Start Tick */
 286:./Drivers/STM32F1xx_HAL_Driver/Src/stm32f1xx_hal_rcc.c ****   tickstart = HAL_GetTick();
 287:./Drivers/STM32F1xx_HAL_Driver/Src/stm32f1xx_hal_rcc.c **** 
 288:./Drivers/STM32F1xx_HAL_Driver/Src/stm32f1xx_hal_rcc.c ****   /* Clear PLL2ON bit */
 289:./Drivers/STM32F1xx_HAL_Driver/Src/stm32f1xx_hal_rcc.c ****   CLEAR_BIT(RCC->CR, RCC_CR_PLL2ON);
 290:./Drivers/STM32F1xx_HAL_Driver/Src/stm32f1xx_hal_rcc.c **** 
 291:./Drivers/STM32F1xx_HAL_Driver/Src/stm32f1xx_hal_rcc.c ****   /* Wait till PLL2 is disabled */
 292:./Drivers/STM32F1xx_HAL_Driver/Src/stm32f1xx_hal_rcc.c ****   while (READ_BIT(RCC->CR, RCC_CR_PLL2RDY) != RESET)
 293:./Drivers/STM32F1xx_HAL_Driver/Src/stm32f1xx_hal_rcc.c ****   {
 294:./Drivers/STM32F1xx_HAL_Driver/Src/stm32f1xx_hal_rcc.c ****     if ((HAL_GetTick() - tickstart) > PLL2_TIMEOUT_VALUE)
 295:./Drivers/STM32F1xx_HAL_Driver/Src/stm32f1xx_hal_rcc.c ****     {
 296:./Drivers/STM32F1xx_HAL_Driver/Src/stm32f1xx_hal_rcc.c ****       return HAL_TIMEOUT;
 297:./Drivers/STM32F1xx_HAL_Driver/Src/stm32f1xx_hal_rcc.c ****     }
 298:./Drivers/STM32F1xx_HAL_Driver/Src/stm32f1xx_hal_rcc.c ****   }
 299:./Drivers/STM32F1xx_HAL_Driver/Src/stm32f1xx_hal_rcc.c **** #endif /* RCC_PLL2_SUPPORT */
 300:./Drivers/STM32F1xx_HAL_Driver/Src/stm32f1xx_hal_rcc.c **** 
 301:./Drivers/STM32F1xx_HAL_Driver/Src/stm32f1xx_hal_rcc.c **** #if defined(RCC_PLLI2S_SUPPORT)
 302:./Drivers/STM32F1xx_HAL_Driver/Src/stm32f1xx_hal_rcc.c ****   /* Get Start Tick */
 303:./Drivers/STM32F1xx_HAL_Driver/Src/stm32f1xx_hal_rcc.c ****   tickstart = HAL_GetTick();
 304:./Drivers/STM32F1xx_HAL_Driver/Src/stm32f1xx_hal_rcc.c **** 
 305:./Drivers/STM32F1xx_HAL_Driver/Src/stm32f1xx_hal_rcc.c ****   /* Clear PLL3ON bit */
 306:./Drivers/STM32F1xx_HAL_Driver/Src/stm32f1xx_hal_rcc.c ****   CLEAR_BIT(RCC->CR, RCC_CR_PLL3ON);
 307:./Drivers/STM32F1xx_HAL_Driver/Src/stm32f1xx_hal_rcc.c **** 
ARM GAS  C:\Users\ULTIMA~1\AppData\Local\Temp\cc1JA9tE.s 			page 10


 308:./Drivers/STM32F1xx_HAL_Driver/Src/stm32f1xx_hal_rcc.c ****   /* Wait till PLL3 is disabled */
 309:./Drivers/STM32F1xx_HAL_Driver/Src/stm32f1xx_hal_rcc.c ****   while (READ_BIT(RCC->CR, RCC_CR_PLL3RDY) != RESET)
 310:./Drivers/STM32F1xx_HAL_Driver/Src/stm32f1xx_hal_rcc.c ****   {
 311:./Drivers/STM32F1xx_HAL_Driver/Src/stm32f1xx_hal_rcc.c ****     if ((HAL_GetTick() - tickstart) > PLLI2S_TIMEOUT_VALUE)
 312:./Drivers/STM32F1xx_HAL_Driver/Src/stm32f1xx_hal_rcc.c ****     {
 313:./Drivers/STM32F1xx_HAL_Driver/Src/stm32f1xx_hal_rcc.c ****       return HAL_TIMEOUT;
 314:./Drivers/STM32F1xx_HAL_Driver/Src/stm32f1xx_hal_rcc.c ****     }
 315:./Drivers/STM32F1xx_HAL_Driver/Src/stm32f1xx_hal_rcc.c ****   }
 316:./Drivers/STM32F1xx_HAL_Driver/Src/stm32f1xx_hal_rcc.c **** #endif /* RCC_PLLI2S_SUPPORT */
 317:./Drivers/STM32F1xx_HAL_Driver/Src/stm32f1xx_hal_rcc.c **** 
 318:./Drivers/STM32F1xx_HAL_Driver/Src/stm32f1xx_hal_rcc.c **** #if defined(RCC_CFGR2_PREDIV1)
 319:./Drivers/STM32F1xx_HAL_Driver/Src/stm32f1xx_hal_rcc.c ****   /* Reset CFGR2 register */
 320:./Drivers/STM32F1xx_HAL_Driver/Src/stm32f1xx_hal_rcc.c ****   CLEAR_REG(RCC->CFGR2);
 321:./Drivers/STM32F1xx_HAL_Driver/Src/stm32f1xx_hal_rcc.c **** #endif /* RCC_CFGR2_PREDIV1 */
 322:./Drivers/STM32F1xx_HAL_Driver/Src/stm32f1xx_hal_rcc.c **** 
 323:./Drivers/STM32F1xx_HAL_Driver/Src/stm32f1xx_hal_rcc.c ****   /* Reset all CSR flags */
 324:./Drivers/STM32F1xx_HAL_Driver/Src/stm32f1xx_hal_rcc.c ****   SET_BIT(RCC->CSR, RCC_CSR_RMVF);
 200              		.loc 1 324 3
 201 0108 064B     		ldr	r3, .L12
 202 010a 5B6A     		ldr	r3, [r3, #36]
 203 010c 054A     		ldr	r2, .L12
 204 010e 43F08073 		orr	r3, r3, #16777216
 205 0112 5362     		str	r3, [r2, #36]
 325:./Drivers/STM32F1xx_HAL_Driver/Src/stm32f1xx_hal_rcc.c **** 
 326:./Drivers/STM32F1xx_HAL_Driver/Src/stm32f1xx_hal_rcc.c ****   /* Disable all interrupts */
 327:./Drivers/STM32F1xx_HAL_Driver/Src/stm32f1xx_hal_rcc.c ****   CLEAR_REG(RCC->CIR);
 206              		.loc 1 327 3
 207 0114 034B     		ldr	r3, .L12
 208 0116 0022     		movs	r2, #0
 209 0118 9A60     		str	r2, [r3, #8]
 328:./Drivers/STM32F1xx_HAL_Driver/Src/stm32f1xx_hal_rcc.c **** 
 329:./Drivers/STM32F1xx_HAL_Driver/Src/stm32f1xx_hal_rcc.c ****   return HAL_OK;
 210              		.loc 1 329 10
 211 011a 0023     		movs	r3, #0
 212              	.L3:
 330:./Drivers/STM32F1xx_HAL_Driver/Src/stm32f1xx_hal_rcc.c **** }
 213              		.loc 1 330 1
 214 011c 1846     		mov	r0, r3
 215 011e 0837     		adds	r7, r7, #8
 216              		.cfi_def_cfa_offset 8
 217 0120 BD46     		mov	sp, r7
 218              		.cfi_def_cfa_register 13
 219              		@ sp needed
 220 0122 80BD     		pop	{r7, pc}
 221              	.L13:
 222              		.align	2
 223              	.L12:
 224 0124 00100240 		.word	1073876992
 225 0128 00000000 		.word	SystemCoreClock
 226 012c 00127A00 		.word	8000000
 227 0130 00000000 		.word	uwTickPrio
 228              		.cfi_endproc
 229              	.LFE65:
 231              		.section	.text.HAL_RCC_OscConfig,"ax",%progbits
 232              		.align	1
 233              		.global	HAL_RCC_OscConfig
 234              		.syntax unified
ARM GAS  C:\Users\ULTIMA~1\AppData\Local\Temp\cc1JA9tE.s 			page 11


 235              		.thumb
 236              		.thumb_func
 238              	HAL_RCC_OscConfig:
 239              	.LFB66:
 331:./Drivers/STM32F1xx_HAL_Driver/Src/stm32f1xx_hal_rcc.c **** 
 332:./Drivers/STM32F1xx_HAL_Driver/Src/stm32f1xx_hal_rcc.c **** /**
 333:./Drivers/STM32F1xx_HAL_Driver/Src/stm32f1xx_hal_rcc.c ****   * @brief  Initializes the RCC Oscillators according to the specified parameters in the
 334:./Drivers/STM32F1xx_HAL_Driver/Src/stm32f1xx_hal_rcc.c ****   *         RCC_OscInitTypeDef.
 335:./Drivers/STM32F1xx_HAL_Driver/Src/stm32f1xx_hal_rcc.c ****   * @param  RCC_OscInitStruct pointer to an RCC_OscInitTypeDef structure that
 336:./Drivers/STM32F1xx_HAL_Driver/Src/stm32f1xx_hal_rcc.c ****   *         contains the configuration information for the RCC Oscillators.
 337:./Drivers/STM32F1xx_HAL_Driver/Src/stm32f1xx_hal_rcc.c ****   * @note   The PLL is not disabled when used as system clock.
 338:./Drivers/STM32F1xx_HAL_Driver/Src/stm32f1xx_hal_rcc.c ****   * @note   The PLL is not disabled when USB OTG FS clock is enabled (specific to devices with USB 
 339:./Drivers/STM32F1xx_HAL_Driver/Src/stm32f1xx_hal_rcc.c ****   * @note   Transitions LSE Bypass to LSE On and LSE On to LSE Bypass are not
 340:./Drivers/STM32F1xx_HAL_Driver/Src/stm32f1xx_hal_rcc.c ****   *         supported by this macro. User should request a transition to LSE Off
 341:./Drivers/STM32F1xx_HAL_Driver/Src/stm32f1xx_hal_rcc.c ****   *         first and then LSE On or LSE Bypass.
 342:./Drivers/STM32F1xx_HAL_Driver/Src/stm32f1xx_hal_rcc.c ****   * @note   Transition HSE Bypass to HSE On and HSE On to HSE Bypass are not
 343:./Drivers/STM32F1xx_HAL_Driver/Src/stm32f1xx_hal_rcc.c ****   *         supported by this macro. User should request a transition to HSE Off
 344:./Drivers/STM32F1xx_HAL_Driver/Src/stm32f1xx_hal_rcc.c ****   *         first and then HSE On or HSE Bypass.
 345:./Drivers/STM32F1xx_HAL_Driver/Src/stm32f1xx_hal_rcc.c ****   * @retval HAL status
 346:./Drivers/STM32F1xx_HAL_Driver/Src/stm32f1xx_hal_rcc.c ****   */
 347:./Drivers/STM32F1xx_HAL_Driver/Src/stm32f1xx_hal_rcc.c **** HAL_StatusTypeDef HAL_RCC_OscConfig(RCC_OscInitTypeDef  *RCC_OscInitStruct)
 348:./Drivers/STM32F1xx_HAL_Driver/Src/stm32f1xx_hal_rcc.c **** {
 240              		.loc 1 348 1
 241              		.cfi_startproc
 242              		@ args = 0, pretend = 0, frame = 24
 243              		@ frame_needed = 1, uses_anonymous_args = 0
 244 0000 80B5     		push	{r7, lr}
 245              		.cfi_def_cfa_offset 8
 246              		.cfi_offset 7, -8
 247              		.cfi_offset 14, -4
 248 0002 86B0     		sub	sp, sp, #24
 249              		.cfi_def_cfa_offset 32
 250 0004 00AF     		add	r7, sp, #0
 251              		.cfi_def_cfa_register 7
 252 0006 7860     		str	r0, [r7, #4]
 349:./Drivers/STM32F1xx_HAL_Driver/Src/stm32f1xx_hal_rcc.c ****   uint32_t tickstart;
 350:./Drivers/STM32F1xx_HAL_Driver/Src/stm32f1xx_hal_rcc.c ****   uint32_t pll_config;
 351:./Drivers/STM32F1xx_HAL_Driver/Src/stm32f1xx_hal_rcc.c **** 
 352:./Drivers/STM32F1xx_HAL_Driver/Src/stm32f1xx_hal_rcc.c ****   /* Check Null pointer */
 353:./Drivers/STM32F1xx_HAL_Driver/Src/stm32f1xx_hal_rcc.c ****   if (RCC_OscInitStruct == NULL)
 253              		.loc 1 353 6
 254 0008 7B68     		ldr	r3, [r7, #4]
 255 000a 002B     		cmp	r3, #0
 256 000c 01D1     		bne	.L15
 354:./Drivers/STM32F1xx_HAL_Driver/Src/stm32f1xx_hal_rcc.c ****   {
 355:./Drivers/STM32F1xx_HAL_Driver/Src/stm32f1xx_hal_rcc.c ****     return HAL_ERROR;
 257              		.loc 1 355 12
 258 000e 0123     		movs	r3, #1
 259 0010 72E2     		b	.L16
 260              	.L15:
 356:./Drivers/STM32F1xx_HAL_Driver/Src/stm32f1xx_hal_rcc.c ****   }
 357:./Drivers/STM32F1xx_HAL_Driver/Src/stm32f1xx_hal_rcc.c **** 
 358:./Drivers/STM32F1xx_HAL_Driver/Src/stm32f1xx_hal_rcc.c ****   /* Check the parameters */
 359:./Drivers/STM32F1xx_HAL_Driver/Src/stm32f1xx_hal_rcc.c ****   assert_param(IS_RCC_OSCILLATORTYPE(RCC_OscInitStruct->OscillatorType));
 360:./Drivers/STM32F1xx_HAL_Driver/Src/stm32f1xx_hal_rcc.c **** 
 361:./Drivers/STM32F1xx_HAL_Driver/Src/stm32f1xx_hal_rcc.c ****   /*------------------------------- HSE Configuration ------------------------*/
 362:./Drivers/STM32F1xx_HAL_Driver/Src/stm32f1xx_hal_rcc.c ****   if (((RCC_OscInitStruct->OscillatorType) & RCC_OSCILLATORTYPE_HSE) == RCC_OSCILLATORTYPE_HSE)
ARM GAS  C:\Users\ULTIMA~1\AppData\Local\Temp\cc1JA9tE.s 			page 12


 261              		.loc 1 362 26
 262 0012 7B68     		ldr	r3, [r7, #4]
 263 0014 1B68     		ldr	r3, [r3]
 264              		.loc 1 362 44
 265 0016 03F00103 		and	r3, r3, #1
 266              		.loc 1 362 6
 267 001a 002B     		cmp	r3, #0
 268 001c 00F08780 		beq	.L17
 363:./Drivers/STM32F1xx_HAL_Driver/Src/stm32f1xx_hal_rcc.c ****   {
 364:./Drivers/STM32F1xx_HAL_Driver/Src/stm32f1xx_hal_rcc.c ****     /* Check the parameters */
 365:./Drivers/STM32F1xx_HAL_Driver/Src/stm32f1xx_hal_rcc.c ****     assert_param(IS_RCC_HSE(RCC_OscInitStruct->HSEState));
 366:./Drivers/STM32F1xx_HAL_Driver/Src/stm32f1xx_hal_rcc.c **** 
 367:./Drivers/STM32F1xx_HAL_Driver/Src/stm32f1xx_hal_rcc.c ****     /* When the HSE is used as system clock or clock source for PLL in these cases it is not allowe
 368:./Drivers/STM32F1xx_HAL_Driver/Src/stm32f1xx_hal_rcc.c ****     if ((__HAL_RCC_GET_SYSCLK_SOURCE() == RCC_SYSCLKSOURCE_STATUS_HSE)
 269              		.loc 1 368 10
 270 0020 924B     		ldr	r3, .L73
 271 0022 5B68     		ldr	r3, [r3, #4]
 272 0024 03F00C03 		and	r3, r3, #12
 273              		.loc 1 368 8
 274 0028 042B     		cmp	r3, #4
 275 002a 0CD0     		beq	.L18
 369:./Drivers/STM32F1xx_HAL_Driver/Src/stm32f1xx_hal_rcc.c ****         || ((__HAL_RCC_GET_SYSCLK_SOURCE() == RCC_SYSCLKSOURCE_STATUS_PLLCLK) && (__HAL_RCC_GET_PLL
 276              		.loc 1 369 14
 277 002c 8F4B     		ldr	r3, .L73
 278 002e 5B68     		ldr	r3, [r3, #4]
 279 0030 03F00C03 		and	r3, r3, #12
 280              		.loc 1 369 9
 281 0034 082B     		cmp	r3, #8
 282 0036 12D1     		bne	.L19
 283              		.loc 1 369 83 discriminator 1
 284 0038 8C4B     		ldr	r3, .L73
 285 003a 5B68     		ldr	r3, [r3, #4]
 286 003c 03F48033 		and	r3, r3, #65536
 287              		.loc 1 369 79 discriminator 1
 288 0040 B3F5803F 		cmp	r3, #65536
 289 0044 0BD1     		bne	.L19
 290              	.L18:
 370:./Drivers/STM32F1xx_HAL_Driver/Src/stm32f1xx_hal_rcc.c ****     {
 371:./Drivers/STM32F1xx_HAL_Driver/Src/stm32f1xx_hal_rcc.c ****       if ((__HAL_RCC_GET_FLAG(RCC_FLAG_HSERDY) != RESET) && (RCC_OscInitStruct->HSEState == RCC_HSE
 291              		.loc 1 371 12
 292 0046 894B     		ldr	r3, .L73
 293 0048 1B68     		ldr	r3, [r3]
 294 004a 03F40033 		and	r3, r3, #131072
 295              		.loc 1 371 10
 296 004e 002B     		cmp	r3, #0
 297 0050 6CD0     		beq	.L72
 298              		.loc 1 371 79 discriminator 1
 299 0052 7B68     		ldr	r3, [r7, #4]
 300 0054 5B68     		ldr	r3, [r3, #4]
 301              		.loc 1 371 58 discriminator 1
 302 0056 002B     		cmp	r3, #0
 303 0058 68D1     		bne	.L72
 372:./Drivers/STM32F1xx_HAL_Driver/Src/stm32f1xx_hal_rcc.c ****       {
 373:./Drivers/STM32F1xx_HAL_Driver/Src/stm32f1xx_hal_rcc.c ****         return HAL_ERROR;
 304              		.loc 1 373 16
 305 005a 0123     		movs	r3, #1
 306 005c 4CE2     		b	.L16
ARM GAS  C:\Users\ULTIMA~1\AppData\Local\Temp\cc1JA9tE.s 			page 13


 307              	.L19:
 374:./Drivers/STM32F1xx_HAL_Driver/Src/stm32f1xx_hal_rcc.c ****       }
 375:./Drivers/STM32F1xx_HAL_Driver/Src/stm32f1xx_hal_rcc.c ****     }
 376:./Drivers/STM32F1xx_HAL_Driver/Src/stm32f1xx_hal_rcc.c ****     else
 377:./Drivers/STM32F1xx_HAL_Driver/Src/stm32f1xx_hal_rcc.c ****     {
 378:./Drivers/STM32F1xx_HAL_Driver/Src/stm32f1xx_hal_rcc.c ****       /* Set the new HSE configuration ---------------------------------------*/
 379:./Drivers/STM32F1xx_HAL_Driver/Src/stm32f1xx_hal_rcc.c ****       __HAL_RCC_HSE_CONFIG(RCC_OscInitStruct->HSEState);
 308              		.loc 1 379 7
 309 005e 7B68     		ldr	r3, [r7, #4]
 310 0060 5B68     		ldr	r3, [r3, #4]
 311 0062 B3F5803F 		cmp	r3, #65536
 312 0066 06D1     		bne	.L21
 313              		.loc 1 379 7 is_stmt 0 discriminator 1
 314 0068 804B     		ldr	r3, .L73
 315 006a 1B68     		ldr	r3, [r3]
 316 006c 7F4A     		ldr	r2, .L73
 317 006e 43F48033 		orr	r3, r3, #65536
 318 0072 1360     		str	r3, [r2]
 319 0074 2EE0     		b	.L22
 320              	.L21:
 321              		.loc 1 379 7 discriminator 2
 322 0076 7B68     		ldr	r3, [r7, #4]
 323 0078 5B68     		ldr	r3, [r3, #4]
 324 007a 002B     		cmp	r3, #0
 325 007c 0CD1     		bne	.L23
 326              		.loc 1 379 7 discriminator 3
 327 007e 7B4B     		ldr	r3, .L73
 328 0080 1B68     		ldr	r3, [r3]
 329 0082 7A4A     		ldr	r2, .L73
 330 0084 23F48033 		bic	r3, r3, #65536
 331 0088 1360     		str	r3, [r2]
 332 008a 784B     		ldr	r3, .L73
 333 008c 1B68     		ldr	r3, [r3]
 334 008e 774A     		ldr	r2, .L73
 335 0090 23F48023 		bic	r3, r3, #262144
 336 0094 1360     		str	r3, [r2]
 337 0096 1DE0     		b	.L22
 338              	.L23:
 339              		.loc 1 379 7 discriminator 4
 340 0098 7B68     		ldr	r3, [r7, #4]
 341 009a 5B68     		ldr	r3, [r3, #4]
 342 009c B3F5A02F 		cmp	r3, #327680
 343 00a0 0CD1     		bne	.L24
 344              		.loc 1 379 7 discriminator 5
 345 00a2 724B     		ldr	r3, .L73
 346 00a4 1B68     		ldr	r3, [r3]
 347 00a6 714A     		ldr	r2, .L73
 348 00a8 43F48023 		orr	r3, r3, #262144
 349 00ac 1360     		str	r3, [r2]
 350 00ae 6F4B     		ldr	r3, .L73
 351 00b0 1B68     		ldr	r3, [r3]
 352 00b2 6E4A     		ldr	r2, .L73
 353 00b4 43F48033 		orr	r3, r3, #65536
 354 00b8 1360     		str	r3, [r2]
 355 00ba 0BE0     		b	.L22
 356              	.L24:
 357              		.loc 1 379 7 discriminator 6
ARM GAS  C:\Users\ULTIMA~1\AppData\Local\Temp\cc1JA9tE.s 			page 14


 358 00bc 6B4B     		ldr	r3, .L73
 359 00be 1B68     		ldr	r3, [r3]
 360 00c0 6A4A     		ldr	r2, .L73
 361 00c2 23F48033 		bic	r3, r3, #65536
 362 00c6 1360     		str	r3, [r2]
 363 00c8 684B     		ldr	r3, .L73
 364 00ca 1B68     		ldr	r3, [r3]
 365 00cc 674A     		ldr	r2, .L73
 366 00ce 23F48023 		bic	r3, r3, #262144
 367 00d2 1360     		str	r3, [r2]
 368              	.L22:
 380:./Drivers/STM32F1xx_HAL_Driver/Src/stm32f1xx_hal_rcc.c **** 
 381:./Drivers/STM32F1xx_HAL_Driver/Src/stm32f1xx_hal_rcc.c **** 
 382:./Drivers/STM32F1xx_HAL_Driver/Src/stm32f1xx_hal_rcc.c ****       /* Check the HSE State */
 383:./Drivers/STM32F1xx_HAL_Driver/Src/stm32f1xx_hal_rcc.c ****       if (RCC_OscInitStruct->HSEState != RCC_HSE_OFF)
 369              		.loc 1 383 28 is_stmt 1
 370 00d4 7B68     		ldr	r3, [r7, #4]
 371 00d6 5B68     		ldr	r3, [r3, #4]
 372              		.loc 1 383 10
 373 00d8 002B     		cmp	r3, #0
 374 00da 13D0     		beq	.L25
 384:./Drivers/STM32F1xx_HAL_Driver/Src/stm32f1xx_hal_rcc.c ****       {
 385:./Drivers/STM32F1xx_HAL_Driver/Src/stm32f1xx_hal_rcc.c ****         /* Get Start Tick */
 386:./Drivers/STM32F1xx_HAL_Driver/Src/stm32f1xx_hal_rcc.c ****         tickstart = HAL_GetTick();
 375              		.loc 1 386 21
 376 00dc FFF7FEFF 		bl	HAL_GetTick
 377 00e0 3861     		str	r0, [r7, #16]
 387:./Drivers/STM32F1xx_HAL_Driver/Src/stm32f1xx_hal_rcc.c **** 
 388:./Drivers/STM32F1xx_HAL_Driver/Src/stm32f1xx_hal_rcc.c ****         /* Wait till HSE is ready */
 389:./Drivers/STM32F1xx_HAL_Driver/Src/stm32f1xx_hal_rcc.c ****         while (__HAL_RCC_GET_FLAG(RCC_FLAG_HSERDY) == RESET)
 378              		.loc 1 389 15
 379 00e2 08E0     		b	.L26
 380              	.L27:
 390:./Drivers/STM32F1xx_HAL_Driver/Src/stm32f1xx_hal_rcc.c ****         {
 391:./Drivers/STM32F1xx_HAL_Driver/Src/stm32f1xx_hal_rcc.c ****           if ((HAL_GetTick() - tickstart) > HSE_TIMEOUT_VALUE)
 381              		.loc 1 391 16
 382 00e4 FFF7FEFF 		bl	HAL_GetTick
 383 00e8 0246     		mov	r2, r0
 384              		.loc 1 391 30
 385 00ea 3B69     		ldr	r3, [r7, #16]
 386 00ec D31A     		subs	r3, r2, r3
 387              		.loc 1 391 14
 388 00ee 642B     		cmp	r3, #100
 389 00f0 01D9     		bls	.L26
 392:./Drivers/STM32F1xx_HAL_Driver/Src/stm32f1xx_hal_rcc.c ****           {
 393:./Drivers/STM32F1xx_HAL_Driver/Src/stm32f1xx_hal_rcc.c ****             return HAL_TIMEOUT;
 390              		.loc 1 393 20
 391 00f2 0323     		movs	r3, #3
 392 00f4 00E2     		b	.L16
 393              	.L26:
 389:./Drivers/STM32F1xx_HAL_Driver/Src/stm32f1xx_hal_rcc.c ****         {
 394              		.loc 1 389 16
 395 00f6 5D4B     		ldr	r3, .L73
 396 00f8 1B68     		ldr	r3, [r3]
 397 00fa 03F40033 		and	r3, r3, #131072
 389:./Drivers/STM32F1xx_HAL_Driver/Src/stm32f1xx_hal_rcc.c ****         {
 398              		.loc 1 389 15
ARM GAS  C:\Users\ULTIMA~1\AppData\Local\Temp\cc1JA9tE.s 			page 15


 399 00fe 002B     		cmp	r3, #0
 400 0100 F0D0     		beq	.L27
 401 0102 14E0     		b	.L17
 402              	.L25:
 394:./Drivers/STM32F1xx_HAL_Driver/Src/stm32f1xx_hal_rcc.c ****           }
 395:./Drivers/STM32F1xx_HAL_Driver/Src/stm32f1xx_hal_rcc.c ****         }
 396:./Drivers/STM32F1xx_HAL_Driver/Src/stm32f1xx_hal_rcc.c ****       }
 397:./Drivers/STM32F1xx_HAL_Driver/Src/stm32f1xx_hal_rcc.c ****       else
 398:./Drivers/STM32F1xx_HAL_Driver/Src/stm32f1xx_hal_rcc.c ****       {
 399:./Drivers/STM32F1xx_HAL_Driver/Src/stm32f1xx_hal_rcc.c ****         /* Get Start Tick */
 400:./Drivers/STM32F1xx_HAL_Driver/Src/stm32f1xx_hal_rcc.c ****         tickstart = HAL_GetTick();
 403              		.loc 1 400 21
 404 0104 FFF7FEFF 		bl	HAL_GetTick
 405 0108 3861     		str	r0, [r7, #16]
 401:./Drivers/STM32F1xx_HAL_Driver/Src/stm32f1xx_hal_rcc.c **** 
 402:./Drivers/STM32F1xx_HAL_Driver/Src/stm32f1xx_hal_rcc.c ****         /* Wait till HSE is disabled */
 403:./Drivers/STM32F1xx_HAL_Driver/Src/stm32f1xx_hal_rcc.c ****         while (__HAL_RCC_GET_FLAG(RCC_FLAG_HSERDY) != RESET)
 406              		.loc 1 403 15
 407 010a 08E0     		b	.L28
 408              	.L29:
 404:./Drivers/STM32F1xx_HAL_Driver/Src/stm32f1xx_hal_rcc.c ****         {
 405:./Drivers/STM32F1xx_HAL_Driver/Src/stm32f1xx_hal_rcc.c ****           if ((HAL_GetTick() - tickstart) > HSE_TIMEOUT_VALUE)
 409              		.loc 1 405 16
 410 010c FFF7FEFF 		bl	HAL_GetTick
 411 0110 0246     		mov	r2, r0
 412              		.loc 1 405 30
 413 0112 3B69     		ldr	r3, [r7, #16]
 414 0114 D31A     		subs	r3, r2, r3
 415              		.loc 1 405 14
 416 0116 642B     		cmp	r3, #100
 417 0118 01D9     		bls	.L28
 406:./Drivers/STM32F1xx_HAL_Driver/Src/stm32f1xx_hal_rcc.c ****           {
 407:./Drivers/STM32F1xx_HAL_Driver/Src/stm32f1xx_hal_rcc.c ****             return HAL_TIMEOUT;
 418              		.loc 1 407 20
 419 011a 0323     		movs	r3, #3
 420 011c ECE1     		b	.L16
 421              	.L28:
 403:./Drivers/STM32F1xx_HAL_Driver/Src/stm32f1xx_hal_rcc.c ****         {
 422              		.loc 1 403 16
 423 011e 534B     		ldr	r3, .L73
 424 0120 1B68     		ldr	r3, [r3]
 425 0122 03F40033 		and	r3, r3, #131072
 403:./Drivers/STM32F1xx_HAL_Driver/Src/stm32f1xx_hal_rcc.c ****         {
 426              		.loc 1 403 15
 427 0126 002B     		cmp	r3, #0
 428 0128 F0D1     		bne	.L29
 429 012a 00E0     		b	.L17
 430              	.L72:
 371:./Drivers/STM32F1xx_HAL_Driver/Src/stm32f1xx_hal_rcc.c ****       {
 431              		.loc 1 371 10
 432 012c 00BF     		nop
 433              	.L17:
 408:./Drivers/STM32F1xx_HAL_Driver/Src/stm32f1xx_hal_rcc.c ****           }
 409:./Drivers/STM32F1xx_HAL_Driver/Src/stm32f1xx_hal_rcc.c ****         }
 410:./Drivers/STM32F1xx_HAL_Driver/Src/stm32f1xx_hal_rcc.c ****       }
 411:./Drivers/STM32F1xx_HAL_Driver/Src/stm32f1xx_hal_rcc.c ****     }
 412:./Drivers/STM32F1xx_HAL_Driver/Src/stm32f1xx_hal_rcc.c ****   }
ARM GAS  C:\Users\ULTIMA~1\AppData\Local\Temp\cc1JA9tE.s 			page 16


 413:./Drivers/STM32F1xx_HAL_Driver/Src/stm32f1xx_hal_rcc.c ****   /*----------------------------- HSI Configuration --------------------------*/
 414:./Drivers/STM32F1xx_HAL_Driver/Src/stm32f1xx_hal_rcc.c ****   if (((RCC_OscInitStruct->OscillatorType) & RCC_OSCILLATORTYPE_HSI) == RCC_OSCILLATORTYPE_HSI)
 434              		.loc 1 414 26
 435 012e 7B68     		ldr	r3, [r7, #4]
 436 0130 1B68     		ldr	r3, [r3]
 437              		.loc 1 414 44
 438 0132 03F00203 		and	r3, r3, #2
 439              		.loc 1 414 6
 440 0136 002B     		cmp	r3, #0
 441 0138 63D0     		beq	.L30
 415:./Drivers/STM32F1xx_HAL_Driver/Src/stm32f1xx_hal_rcc.c ****   {
 416:./Drivers/STM32F1xx_HAL_Driver/Src/stm32f1xx_hal_rcc.c ****     /* Check the parameters */
 417:./Drivers/STM32F1xx_HAL_Driver/Src/stm32f1xx_hal_rcc.c ****     assert_param(IS_RCC_HSI(RCC_OscInitStruct->HSIState));
 418:./Drivers/STM32F1xx_HAL_Driver/Src/stm32f1xx_hal_rcc.c ****     assert_param(IS_RCC_CALIBRATION_VALUE(RCC_OscInitStruct->HSICalibrationValue));
 419:./Drivers/STM32F1xx_HAL_Driver/Src/stm32f1xx_hal_rcc.c **** 
 420:./Drivers/STM32F1xx_HAL_Driver/Src/stm32f1xx_hal_rcc.c ****     /* Check if HSI is used as system clock or as PLL source when PLL is selected as system clock *
 421:./Drivers/STM32F1xx_HAL_Driver/Src/stm32f1xx_hal_rcc.c ****     if ((__HAL_RCC_GET_SYSCLK_SOURCE() == RCC_SYSCLKSOURCE_STATUS_HSI)
 442              		.loc 1 421 10
 443 013a 4C4B     		ldr	r3, .L73
 444 013c 5B68     		ldr	r3, [r3, #4]
 445 013e 03F00C03 		and	r3, r3, #12
 446              		.loc 1 421 8
 447 0142 002B     		cmp	r3, #0
 448 0144 0BD0     		beq	.L31
 422:./Drivers/STM32F1xx_HAL_Driver/Src/stm32f1xx_hal_rcc.c ****         || ((__HAL_RCC_GET_SYSCLK_SOURCE() == RCC_SYSCLKSOURCE_STATUS_PLLCLK) && (__HAL_RCC_GET_PLL
 449              		.loc 1 422 14
 450 0146 494B     		ldr	r3, .L73
 451 0148 5B68     		ldr	r3, [r3, #4]
 452 014a 03F00C03 		and	r3, r3, #12
 453              		.loc 1 422 9
 454 014e 082B     		cmp	r3, #8
 455 0150 1CD1     		bne	.L32
 456              		.loc 1 422 83 discriminator 1
 457 0152 464B     		ldr	r3, .L73
 458 0154 5B68     		ldr	r3, [r3, #4]
 459 0156 03F48033 		and	r3, r3, #65536
 460              		.loc 1 422 79 discriminator 1
 461 015a 002B     		cmp	r3, #0
 462 015c 16D1     		bne	.L32
 463              	.L31:
 423:./Drivers/STM32F1xx_HAL_Driver/Src/stm32f1xx_hal_rcc.c ****     {
 424:./Drivers/STM32F1xx_HAL_Driver/Src/stm32f1xx_hal_rcc.c ****       /* When HSI is used as system clock it will not disabled */
 425:./Drivers/STM32F1xx_HAL_Driver/Src/stm32f1xx_hal_rcc.c ****       if ((__HAL_RCC_GET_FLAG(RCC_FLAG_HSIRDY) != RESET) && (RCC_OscInitStruct->HSIState != RCC_HSI
 464              		.loc 1 425 12
 465 015e 434B     		ldr	r3, .L73
 466 0160 1B68     		ldr	r3, [r3]
 467 0162 03F00203 		and	r3, r3, #2
 468              		.loc 1 425 10
 469 0166 002B     		cmp	r3, #0
 470 0168 05D0     		beq	.L33
 471              		.loc 1 425 79 discriminator 1
 472 016a 7B68     		ldr	r3, [r7, #4]
 473 016c 1B69     		ldr	r3, [r3, #16]
 474              		.loc 1 425 58 discriminator 1
 475 016e 012B     		cmp	r3, #1
 476 0170 01D0     		beq	.L33
 426:./Drivers/STM32F1xx_HAL_Driver/Src/stm32f1xx_hal_rcc.c ****       {
ARM GAS  C:\Users\ULTIMA~1\AppData\Local\Temp\cc1JA9tE.s 			page 17


 427:./Drivers/STM32F1xx_HAL_Driver/Src/stm32f1xx_hal_rcc.c ****         return HAL_ERROR;
 477              		.loc 1 427 16
 478 0172 0123     		movs	r3, #1
 479 0174 C0E1     		b	.L16
 480              	.L33:
 428:./Drivers/STM32F1xx_HAL_Driver/Src/stm32f1xx_hal_rcc.c ****       }
 429:./Drivers/STM32F1xx_HAL_Driver/Src/stm32f1xx_hal_rcc.c ****       /* Otherwise, just the calibration is allowed */
 430:./Drivers/STM32F1xx_HAL_Driver/Src/stm32f1xx_hal_rcc.c ****       else
 431:./Drivers/STM32F1xx_HAL_Driver/Src/stm32f1xx_hal_rcc.c ****       {
 432:./Drivers/STM32F1xx_HAL_Driver/Src/stm32f1xx_hal_rcc.c ****         /* Adjusts the Internal High Speed oscillator (HSI) calibration value.*/
 433:./Drivers/STM32F1xx_HAL_Driver/Src/stm32f1xx_hal_rcc.c ****         __HAL_RCC_HSI_CALIBRATIONVALUE_ADJUST(RCC_OscInitStruct->HSICalibrationValue);
 481              		.loc 1 433 9
 482 0176 3D4B     		ldr	r3, .L73
 483 0178 1B68     		ldr	r3, [r3]
 484 017a 23F0F802 		bic	r2, r3, #248
 485 017e 7B68     		ldr	r3, [r7, #4]
 486 0180 5B69     		ldr	r3, [r3, #20]
 487 0182 DB00     		lsls	r3, r3, #3
 488 0184 3949     		ldr	r1, .L73
 489 0186 1343     		orrs	r3, r3, r2
 490 0188 0B60     		str	r3, [r1]
 425:./Drivers/STM32F1xx_HAL_Driver/Src/stm32f1xx_hal_rcc.c ****       {
 491              		.loc 1 425 10
 492 018a 3AE0     		b	.L30
 493              	.L32:
 434:./Drivers/STM32F1xx_HAL_Driver/Src/stm32f1xx_hal_rcc.c ****       }
 435:./Drivers/STM32F1xx_HAL_Driver/Src/stm32f1xx_hal_rcc.c ****     }
 436:./Drivers/STM32F1xx_HAL_Driver/Src/stm32f1xx_hal_rcc.c ****     else
 437:./Drivers/STM32F1xx_HAL_Driver/Src/stm32f1xx_hal_rcc.c ****     {
 438:./Drivers/STM32F1xx_HAL_Driver/Src/stm32f1xx_hal_rcc.c ****       /* Check the HSI State */
 439:./Drivers/STM32F1xx_HAL_Driver/Src/stm32f1xx_hal_rcc.c ****       if (RCC_OscInitStruct->HSIState != RCC_HSI_OFF)
 494              		.loc 1 439 28
 495 018c 7B68     		ldr	r3, [r7, #4]
 496 018e 1B69     		ldr	r3, [r3, #16]
 497              		.loc 1 439 10
 498 0190 002B     		cmp	r3, #0
 499 0192 20D0     		beq	.L34
 440:./Drivers/STM32F1xx_HAL_Driver/Src/stm32f1xx_hal_rcc.c ****       {
 441:./Drivers/STM32F1xx_HAL_Driver/Src/stm32f1xx_hal_rcc.c ****         /* Enable the Internal High Speed oscillator (HSI). */
 442:./Drivers/STM32F1xx_HAL_Driver/Src/stm32f1xx_hal_rcc.c ****         __HAL_RCC_HSI_ENABLE();
 500              		.loc 1 442 9
 501 0194 364B     		ldr	r3, .L73+4
 502 0196 0122     		movs	r2, #1
 503 0198 1A60     		str	r2, [r3]
 443:./Drivers/STM32F1xx_HAL_Driver/Src/stm32f1xx_hal_rcc.c **** 
 444:./Drivers/STM32F1xx_HAL_Driver/Src/stm32f1xx_hal_rcc.c ****         /* Get Start Tick */
 445:./Drivers/STM32F1xx_HAL_Driver/Src/stm32f1xx_hal_rcc.c ****         tickstart = HAL_GetTick();
 504              		.loc 1 445 21
 505 019a FFF7FEFF 		bl	HAL_GetTick
 506 019e 3861     		str	r0, [r7, #16]
 446:./Drivers/STM32F1xx_HAL_Driver/Src/stm32f1xx_hal_rcc.c **** 
 447:./Drivers/STM32F1xx_HAL_Driver/Src/stm32f1xx_hal_rcc.c ****         /* Wait till HSI is ready */
 448:./Drivers/STM32F1xx_HAL_Driver/Src/stm32f1xx_hal_rcc.c ****         while (__HAL_RCC_GET_FLAG(RCC_FLAG_HSIRDY) == RESET)
 507              		.loc 1 448 15
 508 01a0 08E0     		b	.L35
 509              	.L36:
 449:./Drivers/STM32F1xx_HAL_Driver/Src/stm32f1xx_hal_rcc.c ****         {
ARM GAS  C:\Users\ULTIMA~1\AppData\Local\Temp\cc1JA9tE.s 			page 18


 450:./Drivers/STM32F1xx_HAL_Driver/Src/stm32f1xx_hal_rcc.c ****           if ((HAL_GetTick() - tickstart) > HSI_TIMEOUT_VALUE)
 510              		.loc 1 450 16
 511 01a2 FFF7FEFF 		bl	HAL_GetTick
 512 01a6 0246     		mov	r2, r0
 513              		.loc 1 450 30
 514 01a8 3B69     		ldr	r3, [r7, #16]
 515 01aa D31A     		subs	r3, r2, r3
 516              		.loc 1 450 14
 517 01ac 022B     		cmp	r3, #2
 518 01ae 01D9     		bls	.L35
 451:./Drivers/STM32F1xx_HAL_Driver/Src/stm32f1xx_hal_rcc.c ****           {
 452:./Drivers/STM32F1xx_HAL_Driver/Src/stm32f1xx_hal_rcc.c ****             return HAL_TIMEOUT;
 519              		.loc 1 452 20
 520 01b0 0323     		movs	r3, #3
 521 01b2 A1E1     		b	.L16
 522              	.L35:
 448:./Drivers/STM32F1xx_HAL_Driver/Src/stm32f1xx_hal_rcc.c ****         {
 523              		.loc 1 448 16
 524 01b4 2D4B     		ldr	r3, .L73
 525 01b6 1B68     		ldr	r3, [r3]
 526 01b8 03F00203 		and	r3, r3, #2
 448:./Drivers/STM32F1xx_HAL_Driver/Src/stm32f1xx_hal_rcc.c ****         {
 527              		.loc 1 448 15
 528 01bc 002B     		cmp	r3, #0
 529 01be F0D0     		beq	.L36
 453:./Drivers/STM32F1xx_HAL_Driver/Src/stm32f1xx_hal_rcc.c ****           }
 454:./Drivers/STM32F1xx_HAL_Driver/Src/stm32f1xx_hal_rcc.c ****         }
 455:./Drivers/STM32F1xx_HAL_Driver/Src/stm32f1xx_hal_rcc.c **** 
 456:./Drivers/STM32F1xx_HAL_Driver/Src/stm32f1xx_hal_rcc.c ****         /* Adjusts the Internal High Speed oscillator (HSI) calibration value.*/
 457:./Drivers/STM32F1xx_HAL_Driver/Src/stm32f1xx_hal_rcc.c ****         __HAL_RCC_HSI_CALIBRATIONVALUE_ADJUST(RCC_OscInitStruct->HSICalibrationValue);
 530              		.loc 1 457 9
 531 01c0 2A4B     		ldr	r3, .L73
 532 01c2 1B68     		ldr	r3, [r3]
 533 01c4 23F0F802 		bic	r2, r3, #248
 534 01c8 7B68     		ldr	r3, [r7, #4]
 535 01ca 5B69     		ldr	r3, [r3, #20]
 536 01cc DB00     		lsls	r3, r3, #3
 537 01ce 2749     		ldr	r1, .L73
 538 01d0 1343     		orrs	r3, r3, r2
 539 01d2 0B60     		str	r3, [r1]
 540 01d4 15E0     		b	.L30
 541              	.L34:
 458:./Drivers/STM32F1xx_HAL_Driver/Src/stm32f1xx_hal_rcc.c ****       }
 459:./Drivers/STM32F1xx_HAL_Driver/Src/stm32f1xx_hal_rcc.c ****       else
 460:./Drivers/STM32F1xx_HAL_Driver/Src/stm32f1xx_hal_rcc.c ****       {
 461:./Drivers/STM32F1xx_HAL_Driver/Src/stm32f1xx_hal_rcc.c ****         /* Disable the Internal High Speed oscillator (HSI). */
 462:./Drivers/STM32F1xx_HAL_Driver/Src/stm32f1xx_hal_rcc.c ****         __HAL_RCC_HSI_DISABLE();
 542              		.loc 1 462 9
 543 01d6 264B     		ldr	r3, .L73+4
 544 01d8 0022     		movs	r2, #0
 545 01da 1A60     		str	r2, [r3]
 463:./Drivers/STM32F1xx_HAL_Driver/Src/stm32f1xx_hal_rcc.c **** 
 464:./Drivers/STM32F1xx_HAL_Driver/Src/stm32f1xx_hal_rcc.c ****         /* Get Start Tick */
 465:./Drivers/STM32F1xx_HAL_Driver/Src/stm32f1xx_hal_rcc.c ****         tickstart = HAL_GetTick();
 546              		.loc 1 465 21
 547 01dc FFF7FEFF 		bl	HAL_GetTick
 548 01e0 3861     		str	r0, [r7, #16]
ARM GAS  C:\Users\ULTIMA~1\AppData\Local\Temp\cc1JA9tE.s 			page 19


 466:./Drivers/STM32F1xx_HAL_Driver/Src/stm32f1xx_hal_rcc.c **** 
 467:./Drivers/STM32F1xx_HAL_Driver/Src/stm32f1xx_hal_rcc.c ****         /* Wait till HSI is disabled */
 468:./Drivers/STM32F1xx_HAL_Driver/Src/stm32f1xx_hal_rcc.c ****         while (__HAL_RCC_GET_FLAG(RCC_FLAG_HSIRDY) != RESET)
 549              		.loc 1 468 15
 550 01e2 08E0     		b	.L37
 551              	.L38:
 469:./Drivers/STM32F1xx_HAL_Driver/Src/stm32f1xx_hal_rcc.c ****         {
 470:./Drivers/STM32F1xx_HAL_Driver/Src/stm32f1xx_hal_rcc.c ****           if ((HAL_GetTick() - tickstart) > HSI_TIMEOUT_VALUE)
 552              		.loc 1 470 16
 553 01e4 FFF7FEFF 		bl	HAL_GetTick
 554 01e8 0246     		mov	r2, r0
 555              		.loc 1 470 30
 556 01ea 3B69     		ldr	r3, [r7, #16]
 557 01ec D31A     		subs	r3, r2, r3
 558              		.loc 1 470 14
 559 01ee 022B     		cmp	r3, #2
 560 01f0 01D9     		bls	.L37
 471:./Drivers/STM32F1xx_HAL_Driver/Src/stm32f1xx_hal_rcc.c ****           {
 472:./Drivers/STM32F1xx_HAL_Driver/Src/stm32f1xx_hal_rcc.c ****             return HAL_TIMEOUT;
 561              		.loc 1 472 20
 562 01f2 0323     		movs	r3, #3
 563 01f4 80E1     		b	.L16
 564              	.L37:
 468:./Drivers/STM32F1xx_HAL_Driver/Src/stm32f1xx_hal_rcc.c ****         {
 565              		.loc 1 468 16
 566 01f6 1D4B     		ldr	r3, .L73
 567 01f8 1B68     		ldr	r3, [r3]
 568 01fa 03F00203 		and	r3, r3, #2
 468:./Drivers/STM32F1xx_HAL_Driver/Src/stm32f1xx_hal_rcc.c ****         {
 569              		.loc 1 468 15
 570 01fe 002B     		cmp	r3, #0
 571 0200 F0D1     		bne	.L38
 572              	.L30:
 473:./Drivers/STM32F1xx_HAL_Driver/Src/stm32f1xx_hal_rcc.c ****           }
 474:./Drivers/STM32F1xx_HAL_Driver/Src/stm32f1xx_hal_rcc.c ****         }
 475:./Drivers/STM32F1xx_HAL_Driver/Src/stm32f1xx_hal_rcc.c ****       }
 476:./Drivers/STM32F1xx_HAL_Driver/Src/stm32f1xx_hal_rcc.c ****     }
 477:./Drivers/STM32F1xx_HAL_Driver/Src/stm32f1xx_hal_rcc.c ****   }
 478:./Drivers/STM32F1xx_HAL_Driver/Src/stm32f1xx_hal_rcc.c ****   /*------------------------------ LSI Configuration -------------------------*/
 479:./Drivers/STM32F1xx_HAL_Driver/Src/stm32f1xx_hal_rcc.c ****   if (((RCC_OscInitStruct->OscillatorType) & RCC_OSCILLATORTYPE_LSI) == RCC_OSCILLATORTYPE_LSI)
 573              		.loc 1 479 26
 574 0202 7B68     		ldr	r3, [r7, #4]
 575 0204 1B68     		ldr	r3, [r3]
 576              		.loc 1 479 44
 577 0206 03F00803 		and	r3, r3, #8
 578              		.loc 1 479 6
 579 020a 002B     		cmp	r3, #0
 580 020c 3AD0     		beq	.L39
 480:./Drivers/STM32F1xx_HAL_Driver/Src/stm32f1xx_hal_rcc.c ****   {
 481:./Drivers/STM32F1xx_HAL_Driver/Src/stm32f1xx_hal_rcc.c ****     /* Check the parameters */
 482:./Drivers/STM32F1xx_HAL_Driver/Src/stm32f1xx_hal_rcc.c ****     assert_param(IS_RCC_LSI(RCC_OscInitStruct->LSIState));
 483:./Drivers/STM32F1xx_HAL_Driver/Src/stm32f1xx_hal_rcc.c **** 
 484:./Drivers/STM32F1xx_HAL_Driver/Src/stm32f1xx_hal_rcc.c ****     /* Check the LSI State */
 485:./Drivers/STM32F1xx_HAL_Driver/Src/stm32f1xx_hal_rcc.c ****     if (RCC_OscInitStruct->LSIState != RCC_LSI_OFF)
 581              		.loc 1 485 26
 582 020e 7B68     		ldr	r3, [r7, #4]
 583 0210 9B69     		ldr	r3, [r3, #24]
ARM GAS  C:\Users\ULTIMA~1\AppData\Local\Temp\cc1JA9tE.s 			page 20


 584              		.loc 1 485 8
 585 0212 002B     		cmp	r3, #0
 586 0214 19D0     		beq	.L40
 486:./Drivers/STM32F1xx_HAL_Driver/Src/stm32f1xx_hal_rcc.c ****     {
 487:./Drivers/STM32F1xx_HAL_Driver/Src/stm32f1xx_hal_rcc.c ****       /* Enable the Internal Low Speed oscillator (LSI). */
 488:./Drivers/STM32F1xx_HAL_Driver/Src/stm32f1xx_hal_rcc.c ****       __HAL_RCC_LSI_ENABLE();
 587              		.loc 1 488 7
 588 0216 174B     		ldr	r3, .L73+8
 589 0218 0122     		movs	r2, #1
 590 021a 1A60     		str	r2, [r3]
 489:./Drivers/STM32F1xx_HAL_Driver/Src/stm32f1xx_hal_rcc.c **** 
 490:./Drivers/STM32F1xx_HAL_Driver/Src/stm32f1xx_hal_rcc.c ****       /* Get Start Tick */
 491:./Drivers/STM32F1xx_HAL_Driver/Src/stm32f1xx_hal_rcc.c ****       tickstart = HAL_GetTick();
 591              		.loc 1 491 19
 592 021c FFF7FEFF 		bl	HAL_GetTick
 593 0220 3861     		str	r0, [r7, #16]
 492:./Drivers/STM32F1xx_HAL_Driver/Src/stm32f1xx_hal_rcc.c **** 
 493:./Drivers/STM32F1xx_HAL_Driver/Src/stm32f1xx_hal_rcc.c ****       /* Wait till LSI is ready */
 494:./Drivers/STM32F1xx_HAL_Driver/Src/stm32f1xx_hal_rcc.c ****       while (__HAL_RCC_GET_FLAG(RCC_FLAG_LSIRDY) == RESET)
 594              		.loc 1 494 13
 595 0222 08E0     		b	.L41
 596              	.L42:
 495:./Drivers/STM32F1xx_HAL_Driver/Src/stm32f1xx_hal_rcc.c ****       {
 496:./Drivers/STM32F1xx_HAL_Driver/Src/stm32f1xx_hal_rcc.c ****         if ((HAL_GetTick() - tickstart) > LSI_TIMEOUT_VALUE)
 597              		.loc 1 496 14
 598 0224 FFF7FEFF 		bl	HAL_GetTick
 599 0228 0246     		mov	r2, r0
 600              		.loc 1 496 28
 601 022a 3B69     		ldr	r3, [r7, #16]
 602 022c D31A     		subs	r3, r2, r3
 603              		.loc 1 496 12
 604 022e 022B     		cmp	r3, #2
 605 0230 01D9     		bls	.L41
 497:./Drivers/STM32F1xx_HAL_Driver/Src/stm32f1xx_hal_rcc.c ****         {
 498:./Drivers/STM32F1xx_HAL_Driver/Src/stm32f1xx_hal_rcc.c ****           return HAL_TIMEOUT;
 606              		.loc 1 498 18
 607 0232 0323     		movs	r3, #3
 608 0234 60E1     		b	.L16
 609              	.L41:
 494:./Drivers/STM32F1xx_HAL_Driver/Src/stm32f1xx_hal_rcc.c ****       {
 610              		.loc 1 494 14
 611 0236 0D4B     		ldr	r3, .L73
 612 0238 5B6A     		ldr	r3, [r3, #36]
 613 023a 03F00203 		and	r3, r3, #2
 494:./Drivers/STM32F1xx_HAL_Driver/Src/stm32f1xx_hal_rcc.c ****       {
 614              		.loc 1 494 13
 615 023e 002B     		cmp	r3, #0
 616 0240 F0D0     		beq	.L42
 499:./Drivers/STM32F1xx_HAL_Driver/Src/stm32f1xx_hal_rcc.c ****         }
 500:./Drivers/STM32F1xx_HAL_Driver/Src/stm32f1xx_hal_rcc.c ****       }
 501:./Drivers/STM32F1xx_HAL_Driver/Src/stm32f1xx_hal_rcc.c ****       /*  To have a fully stabilized clock in the specified range, a software delay of 1ms
 502:./Drivers/STM32F1xx_HAL_Driver/Src/stm32f1xx_hal_rcc.c ****           should be added.*/
 503:./Drivers/STM32F1xx_HAL_Driver/Src/stm32f1xx_hal_rcc.c ****       RCC_Delay(1);
 617              		.loc 1 503 7
 618 0242 0120     		movs	r0, #1
 619 0244 FFF7FEFF 		bl	RCC_Delay
 620 0248 1CE0     		b	.L39
ARM GAS  C:\Users\ULTIMA~1\AppData\Local\Temp\cc1JA9tE.s 			page 21


 621              	.L40:
 504:./Drivers/STM32F1xx_HAL_Driver/Src/stm32f1xx_hal_rcc.c ****     }
 505:./Drivers/STM32F1xx_HAL_Driver/Src/stm32f1xx_hal_rcc.c ****     else
 506:./Drivers/STM32F1xx_HAL_Driver/Src/stm32f1xx_hal_rcc.c ****     {
 507:./Drivers/STM32F1xx_HAL_Driver/Src/stm32f1xx_hal_rcc.c ****       /* Disable the Internal Low Speed oscillator (LSI). */
 508:./Drivers/STM32F1xx_HAL_Driver/Src/stm32f1xx_hal_rcc.c ****       __HAL_RCC_LSI_DISABLE();
 622              		.loc 1 508 7
 623 024a 0A4B     		ldr	r3, .L73+8
 624 024c 0022     		movs	r2, #0
 625 024e 1A60     		str	r2, [r3]
 509:./Drivers/STM32F1xx_HAL_Driver/Src/stm32f1xx_hal_rcc.c **** 
 510:./Drivers/STM32F1xx_HAL_Driver/Src/stm32f1xx_hal_rcc.c ****       /* Get Start Tick */
 511:./Drivers/STM32F1xx_HAL_Driver/Src/stm32f1xx_hal_rcc.c ****       tickstart = HAL_GetTick();
 626              		.loc 1 511 19
 627 0250 FFF7FEFF 		bl	HAL_GetTick
 628 0254 3861     		str	r0, [r7, #16]
 512:./Drivers/STM32F1xx_HAL_Driver/Src/stm32f1xx_hal_rcc.c **** 
 513:./Drivers/STM32F1xx_HAL_Driver/Src/stm32f1xx_hal_rcc.c ****       /* Wait till LSI is disabled */
 514:./Drivers/STM32F1xx_HAL_Driver/Src/stm32f1xx_hal_rcc.c ****       while (__HAL_RCC_GET_FLAG(RCC_FLAG_LSIRDY) != RESET)
 629              		.loc 1 514 13
 630 0256 0FE0     		b	.L43
 631              	.L44:
 515:./Drivers/STM32F1xx_HAL_Driver/Src/stm32f1xx_hal_rcc.c ****       {
 516:./Drivers/STM32F1xx_HAL_Driver/Src/stm32f1xx_hal_rcc.c ****         if ((HAL_GetTick() - tickstart) > LSI_TIMEOUT_VALUE)
 632              		.loc 1 516 14
 633 0258 FFF7FEFF 		bl	HAL_GetTick
 634 025c 0246     		mov	r2, r0
 635              		.loc 1 516 28
 636 025e 3B69     		ldr	r3, [r7, #16]
 637 0260 D31A     		subs	r3, r2, r3
 638              		.loc 1 516 12
 639 0262 022B     		cmp	r3, #2
 640 0264 08D9     		bls	.L43
 517:./Drivers/STM32F1xx_HAL_Driver/Src/stm32f1xx_hal_rcc.c ****         {
 518:./Drivers/STM32F1xx_HAL_Driver/Src/stm32f1xx_hal_rcc.c ****           return HAL_TIMEOUT;
 641              		.loc 1 518 18
 642 0266 0323     		movs	r3, #3
 643 0268 46E1     		b	.L16
 644              	.L74:
 645 026a 00BF     		.align	2
 646              	.L73:
 647 026c 00100240 		.word	1073876992
 648 0270 00004242 		.word	1111621632
 649 0274 80044242 		.word	1111622784
 650              	.L43:
 514:./Drivers/STM32F1xx_HAL_Driver/Src/stm32f1xx_hal_rcc.c ****       {
 651              		.loc 1 514 14
 652 0278 924B     		ldr	r3, .L75
 653 027a 5B6A     		ldr	r3, [r3, #36]
 654 027c 03F00203 		and	r3, r3, #2
 514:./Drivers/STM32F1xx_HAL_Driver/Src/stm32f1xx_hal_rcc.c ****       {
 655              		.loc 1 514 13
 656 0280 002B     		cmp	r3, #0
 657 0282 E9D1     		bne	.L44
 658              	.L39:
 519:./Drivers/STM32F1xx_HAL_Driver/Src/stm32f1xx_hal_rcc.c ****         }
 520:./Drivers/STM32F1xx_HAL_Driver/Src/stm32f1xx_hal_rcc.c ****       }
ARM GAS  C:\Users\ULTIMA~1\AppData\Local\Temp\cc1JA9tE.s 			page 22


 521:./Drivers/STM32F1xx_HAL_Driver/Src/stm32f1xx_hal_rcc.c ****     }
 522:./Drivers/STM32F1xx_HAL_Driver/Src/stm32f1xx_hal_rcc.c ****   }
 523:./Drivers/STM32F1xx_HAL_Driver/Src/stm32f1xx_hal_rcc.c ****   /*------------------------------ LSE Configuration -------------------------*/
 524:./Drivers/STM32F1xx_HAL_Driver/Src/stm32f1xx_hal_rcc.c ****   if (((RCC_OscInitStruct->OscillatorType) & RCC_OSCILLATORTYPE_LSE) == RCC_OSCILLATORTYPE_LSE)
 659              		.loc 1 524 26
 660 0284 7B68     		ldr	r3, [r7, #4]
 661 0286 1B68     		ldr	r3, [r3]
 662              		.loc 1 524 44
 663 0288 03F00403 		and	r3, r3, #4
 664              		.loc 1 524 6
 665 028c 002B     		cmp	r3, #0
 666 028e 00F0A680 		beq	.L45
 667              	.LBB2:
 525:./Drivers/STM32F1xx_HAL_Driver/Src/stm32f1xx_hal_rcc.c ****   {
 526:./Drivers/STM32F1xx_HAL_Driver/Src/stm32f1xx_hal_rcc.c ****     FlagStatus       pwrclkchanged = RESET;
 668              		.loc 1 526 22
 669 0292 0023     		movs	r3, #0
 670 0294 FB75     		strb	r3, [r7, #23]
 527:./Drivers/STM32F1xx_HAL_Driver/Src/stm32f1xx_hal_rcc.c **** 
 528:./Drivers/STM32F1xx_HAL_Driver/Src/stm32f1xx_hal_rcc.c ****     /* Check the parameters */
 529:./Drivers/STM32F1xx_HAL_Driver/Src/stm32f1xx_hal_rcc.c ****     assert_param(IS_RCC_LSE(RCC_OscInitStruct->LSEState));
 530:./Drivers/STM32F1xx_HAL_Driver/Src/stm32f1xx_hal_rcc.c **** 
 531:./Drivers/STM32F1xx_HAL_Driver/Src/stm32f1xx_hal_rcc.c ****     /* Update LSE configuration in Backup Domain control register    */
 532:./Drivers/STM32F1xx_HAL_Driver/Src/stm32f1xx_hal_rcc.c ****     /* Requires to enable write access to Backup Domain of necessary */
 533:./Drivers/STM32F1xx_HAL_Driver/Src/stm32f1xx_hal_rcc.c ****     if (__HAL_RCC_PWR_IS_CLK_DISABLED())
 671              		.loc 1 533 9
 672 0296 8B4B     		ldr	r3, .L75
 673 0298 DB69     		ldr	r3, [r3, #28]
 674 029a 03F08053 		and	r3, r3, #268435456
 675              		.loc 1 533 8
 676 029e 002B     		cmp	r3, #0
 677 02a0 0DD1     		bne	.L46
 678              	.LBB3:
 534:./Drivers/STM32F1xx_HAL_Driver/Src/stm32f1xx_hal_rcc.c ****     {
 535:./Drivers/STM32F1xx_HAL_Driver/Src/stm32f1xx_hal_rcc.c ****       __HAL_RCC_PWR_CLK_ENABLE();
 679              		.loc 1 535 7
 680 02a2 884B     		ldr	r3, .L75
 681 02a4 DB69     		ldr	r3, [r3, #28]
 682 02a6 874A     		ldr	r2, .L75
 683 02a8 43F08053 		orr	r3, r3, #268435456
 684 02ac D361     		str	r3, [r2, #28]
 685 02ae 854B     		ldr	r3, .L75
 686 02b0 DB69     		ldr	r3, [r3, #28]
 687 02b2 03F08053 		and	r3, r3, #268435456
 688 02b6 BB60     		str	r3, [r7, #8]
 689 02b8 BB68     		ldr	r3, [r7, #8]
 690              	.LBE3:
 536:./Drivers/STM32F1xx_HAL_Driver/Src/stm32f1xx_hal_rcc.c ****       pwrclkchanged = SET;
 691              		.loc 1 536 21
 692 02ba 0123     		movs	r3, #1
 693 02bc FB75     		strb	r3, [r7, #23]
 694              	.L46:
 537:./Drivers/STM32F1xx_HAL_Driver/Src/stm32f1xx_hal_rcc.c ****     }
 538:./Drivers/STM32F1xx_HAL_Driver/Src/stm32f1xx_hal_rcc.c **** 
 539:./Drivers/STM32F1xx_HAL_Driver/Src/stm32f1xx_hal_rcc.c ****     if (HAL_IS_BIT_CLR(PWR->CR, PWR_CR_DBP))
 695              		.loc 1 539 9
 696 02be 824B     		ldr	r3, .L75+4
ARM GAS  C:\Users\ULTIMA~1\AppData\Local\Temp\cc1JA9tE.s 			page 23


 697 02c0 1B68     		ldr	r3, [r3]
 698 02c2 03F48073 		and	r3, r3, #256
 699              		.loc 1 539 8
 700 02c6 002B     		cmp	r3, #0
 701 02c8 18D1     		bne	.L47
 540:./Drivers/STM32F1xx_HAL_Driver/Src/stm32f1xx_hal_rcc.c ****     {
 541:./Drivers/STM32F1xx_HAL_Driver/Src/stm32f1xx_hal_rcc.c ****       /* Enable write access to Backup domain */
 542:./Drivers/STM32F1xx_HAL_Driver/Src/stm32f1xx_hal_rcc.c ****       SET_BIT(PWR->CR, PWR_CR_DBP);
 702              		.loc 1 542 7
 703 02ca 7F4B     		ldr	r3, .L75+4
 704 02cc 1B68     		ldr	r3, [r3]
 705 02ce 7E4A     		ldr	r2, .L75+4
 706 02d0 43F48073 		orr	r3, r3, #256
 707 02d4 1360     		str	r3, [r2]
 543:./Drivers/STM32F1xx_HAL_Driver/Src/stm32f1xx_hal_rcc.c **** 
 544:./Drivers/STM32F1xx_HAL_Driver/Src/stm32f1xx_hal_rcc.c ****       /* Wait for Backup domain Write protection disable */
 545:./Drivers/STM32F1xx_HAL_Driver/Src/stm32f1xx_hal_rcc.c ****       tickstart = HAL_GetTick();
 708              		.loc 1 545 19
 709 02d6 FFF7FEFF 		bl	HAL_GetTick
 710 02da 3861     		str	r0, [r7, #16]
 546:./Drivers/STM32F1xx_HAL_Driver/Src/stm32f1xx_hal_rcc.c **** 
 547:./Drivers/STM32F1xx_HAL_Driver/Src/stm32f1xx_hal_rcc.c ****       while (HAL_IS_BIT_CLR(PWR->CR, PWR_CR_DBP))
 711              		.loc 1 547 13
 712 02dc 08E0     		b	.L48
 713              	.L49:
 548:./Drivers/STM32F1xx_HAL_Driver/Src/stm32f1xx_hal_rcc.c ****       {
 549:./Drivers/STM32F1xx_HAL_Driver/Src/stm32f1xx_hal_rcc.c ****         if ((HAL_GetTick() - tickstart) > RCC_DBP_TIMEOUT_VALUE)
 714              		.loc 1 549 14
 715 02de FFF7FEFF 		bl	HAL_GetTick
 716 02e2 0246     		mov	r2, r0
 717              		.loc 1 549 28
 718 02e4 3B69     		ldr	r3, [r7, #16]
 719 02e6 D31A     		subs	r3, r2, r3
 720              		.loc 1 549 12
 721 02e8 642B     		cmp	r3, #100
 722 02ea 01D9     		bls	.L48
 550:./Drivers/STM32F1xx_HAL_Driver/Src/stm32f1xx_hal_rcc.c ****         {
 551:./Drivers/STM32F1xx_HAL_Driver/Src/stm32f1xx_hal_rcc.c ****           return HAL_TIMEOUT;
 723              		.loc 1 551 18
 724 02ec 0323     		movs	r3, #3
 725 02ee 03E1     		b	.L16
 726              	.L48:
 547:./Drivers/STM32F1xx_HAL_Driver/Src/stm32f1xx_hal_rcc.c ****       {
 727              		.loc 1 547 14
 728 02f0 754B     		ldr	r3, .L75+4
 729 02f2 1B68     		ldr	r3, [r3]
 730 02f4 03F48073 		and	r3, r3, #256
 547:./Drivers/STM32F1xx_HAL_Driver/Src/stm32f1xx_hal_rcc.c ****       {
 731              		.loc 1 547 13
 732 02f8 002B     		cmp	r3, #0
 733 02fa F0D0     		beq	.L49
 734              	.L47:
 552:./Drivers/STM32F1xx_HAL_Driver/Src/stm32f1xx_hal_rcc.c ****         }
 553:./Drivers/STM32F1xx_HAL_Driver/Src/stm32f1xx_hal_rcc.c ****       }
 554:./Drivers/STM32F1xx_HAL_Driver/Src/stm32f1xx_hal_rcc.c ****     }
 555:./Drivers/STM32F1xx_HAL_Driver/Src/stm32f1xx_hal_rcc.c **** 
 556:./Drivers/STM32F1xx_HAL_Driver/Src/stm32f1xx_hal_rcc.c ****     /* Set the new LSE configuration -----------------------------------------*/
ARM GAS  C:\Users\ULTIMA~1\AppData\Local\Temp\cc1JA9tE.s 			page 24


 557:./Drivers/STM32F1xx_HAL_Driver/Src/stm32f1xx_hal_rcc.c ****     __HAL_RCC_LSE_CONFIG(RCC_OscInitStruct->LSEState);
 735              		.loc 1 557 5
 736 02fc 7B68     		ldr	r3, [r7, #4]
 737 02fe DB68     		ldr	r3, [r3, #12]
 738 0300 012B     		cmp	r3, #1
 739 0302 06D1     		bne	.L50
 740              		.loc 1 557 5 is_stmt 0 discriminator 1
 741 0304 6F4B     		ldr	r3, .L75
 742 0306 1B6A     		ldr	r3, [r3, #32]
 743 0308 6E4A     		ldr	r2, .L75
 744 030a 43F00103 		orr	r3, r3, #1
 745 030e 1362     		str	r3, [r2, #32]
 746 0310 2DE0     		b	.L51
 747              	.L50:
 748              		.loc 1 557 5 discriminator 2
 749 0312 7B68     		ldr	r3, [r7, #4]
 750 0314 DB68     		ldr	r3, [r3, #12]
 751 0316 002B     		cmp	r3, #0
 752 0318 0CD1     		bne	.L52
 753              		.loc 1 557 5 discriminator 3
 754 031a 6A4B     		ldr	r3, .L75
 755 031c 1B6A     		ldr	r3, [r3, #32]
 756 031e 694A     		ldr	r2, .L75
 757 0320 23F00103 		bic	r3, r3, #1
 758 0324 1362     		str	r3, [r2, #32]
 759 0326 674B     		ldr	r3, .L75
 760 0328 1B6A     		ldr	r3, [r3, #32]
 761 032a 664A     		ldr	r2, .L75
 762 032c 23F00403 		bic	r3, r3, #4
 763 0330 1362     		str	r3, [r2, #32]
 764 0332 1CE0     		b	.L51
 765              	.L52:
 766              		.loc 1 557 5 discriminator 4
 767 0334 7B68     		ldr	r3, [r7, #4]
 768 0336 DB68     		ldr	r3, [r3, #12]
 769 0338 052B     		cmp	r3, #5
 770 033a 0CD1     		bne	.L53
 771              		.loc 1 557 5 discriminator 5
 772 033c 614B     		ldr	r3, .L75
 773 033e 1B6A     		ldr	r3, [r3, #32]
 774 0340 604A     		ldr	r2, .L75
 775 0342 43F00403 		orr	r3, r3, #4
 776 0346 1362     		str	r3, [r2, #32]
 777 0348 5E4B     		ldr	r3, .L75
 778 034a 1B6A     		ldr	r3, [r3, #32]
 779 034c 5D4A     		ldr	r2, .L75
 780 034e 43F00103 		orr	r3, r3, #1
 781 0352 1362     		str	r3, [r2, #32]
 782 0354 0BE0     		b	.L51
 783              	.L53:
 784              		.loc 1 557 5 discriminator 6
 785 0356 5B4B     		ldr	r3, .L75
 786 0358 1B6A     		ldr	r3, [r3, #32]
 787 035a 5A4A     		ldr	r2, .L75
 788 035c 23F00103 		bic	r3, r3, #1
 789 0360 1362     		str	r3, [r2, #32]
 790 0362 584B     		ldr	r3, .L75
ARM GAS  C:\Users\ULTIMA~1\AppData\Local\Temp\cc1JA9tE.s 			page 25


 791 0364 1B6A     		ldr	r3, [r3, #32]
 792 0366 574A     		ldr	r2, .L75
 793 0368 23F00403 		bic	r3, r3, #4
 794 036c 1362     		str	r3, [r2, #32]
 795              	.L51:
 558:./Drivers/STM32F1xx_HAL_Driver/Src/stm32f1xx_hal_rcc.c ****     /* Check the LSE State */
 559:./Drivers/STM32F1xx_HAL_Driver/Src/stm32f1xx_hal_rcc.c ****     if (RCC_OscInitStruct->LSEState != RCC_LSE_OFF)
 796              		.loc 1 559 26 is_stmt 1
 797 036e 7B68     		ldr	r3, [r7, #4]
 798 0370 DB68     		ldr	r3, [r3, #12]
 799              		.loc 1 559 8
 800 0372 002B     		cmp	r3, #0
 801 0374 15D0     		beq	.L54
 560:./Drivers/STM32F1xx_HAL_Driver/Src/stm32f1xx_hal_rcc.c ****     {
 561:./Drivers/STM32F1xx_HAL_Driver/Src/stm32f1xx_hal_rcc.c ****       /* Get Start Tick */
 562:./Drivers/STM32F1xx_HAL_Driver/Src/stm32f1xx_hal_rcc.c ****       tickstart = HAL_GetTick();
 802              		.loc 1 562 19
 803 0376 FFF7FEFF 		bl	HAL_GetTick
 804 037a 3861     		str	r0, [r7, #16]
 563:./Drivers/STM32F1xx_HAL_Driver/Src/stm32f1xx_hal_rcc.c **** 
 564:./Drivers/STM32F1xx_HAL_Driver/Src/stm32f1xx_hal_rcc.c ****       /* Wait till LSE is ready */
 565:./Drivers/STM32F1xx_HAL_Driver/Src/stm32f1xx_hal_rcc.c ****       while (__HAL_RCC_GET_FLAG(RCC_FLAG_LSERDY) == RESET)
 805              		.loc 1 565 13
 806 037c 0AE0     		b	.L55
 807              	.L56:
 566:./Drivers/STM32F1xx_HAL_Driver/Src/stm32f1xx_hal_rcc.c ****       {
 567:./Drivers/STM32F1xx_HAL_Driver/Src/stm32f1xx_hal_rcc.c ****         if ((HAL_GetTick() - tickstart) > RCC_LSE_TIMEOUT_VALUE)
 808              		.loc 1 567 14
 809 037e FFF7FEFF 		bl	HAL_GetTick
 810 0382 0246     		mov	r2, r0
 811              		.loc 1 567 28
 812 0384 3B69     		ldr	r3, [r7, #16]
 813 0386 D31A     		subs	r3, r2, r3
 814              		.loc 1 567 12
 815 0388 41F28832 		movw	r2, #5000
 816 038c 9342     		cmp	r3, r2
 817 038e 01D9     		bls	.L55
 568:./Drivers/STM32F1xx_HAL_Driver/Src/stm32f1xx_hal_rcc.c ****         {
 569:./Drivers/STM32F1xx_HAL_Driver/Src/stm32f1xx_hal_rcc.c ****           return HAL_TIMEOUT;
 818              		.loc 1 569 18
 819 0390 0323     		movs	r3, #3
 820 0392 B1E0     		b	.L16
 821              	.L55:
 565:./Drivers/STM32F1xx_HAL_Driver/Src/stm32f1xx_hal_rcc.c ****       {
 822              		.loc 1 565 14
 823 0394 4B4B     		ldr	r3, .L75
 824 0396 1B6A     		ldr	r3, [r3, #32]
 825 0398 03F00203 		and	r3, r3, #2
 565:./Drivers/STM32F1xx_HAL_Driver/Src/stm32f1xx_hal_rcc.c ****       {
 826              		.loc 1 565 13
 827 039c 002B     		cmp	r3, #0
 828 039e EED0     		beq	.L56
 829 03a0 14E0     		b	.L57
 830              	.L54:
 570:./Drivers/STM32F1xx_HAL_Driver/Src/stm32f1xx_hal_rcc.c ****         }
 571:./Drivers/STM32F1xx_HAL_Driver/Src/stm32f1xx_hal_rcc.c ****       }
 572:./Drivers/STM32F1xx_HAL_Driver/Src/stm32f1xx_hal_rcc.c ****     }
ARM GAS  C:\Users\ULTIMA~1\AppData\Local\Temp\cc1JA9tE.s 			page 26


 573:./Drivers/STM32F1xx_HAL_Driver/Src/stm32f1xx_hal_rcc.c ****     else
 574:./Drivers/STM32F1xx_HAL_Driver/Src/stm32f1xx_hal_rcc.c ****     {
 575:./Drivers/STM32F1xx_HAL_Driver/Src/stm32f1xx_hal_rcc.c ****       /* Get Start Tick */
 576:./Drivers/STM32F1xx_HAL_Driver/Src/stm32f1xx_hal_rcc.c ****       tickstart = HAL_GetTick();
 831              		.loc 1 576 19
 832 03a2 FFF7FEFF 		bl	HAL_GetTick
 833 03a6 3861     		str	r0, [r7, #16]
 577:./Drivers/STM32F1xx_HAL_Driver/Src/stm32f1xx_hal_rcc.c **** 
 578:./Drivers/STM32F1xx_HAL_Driver/Src/stm32f1xx_hal_rcc.c ****       /* Wait till LSE is disabled */
 579:./Drivers/STM32F1xx_HAL_Driver/Src/stm32f1xx_hal_rcc.c ****       while (__HAL_RCC_GET_FLAG(RCC_FLAG_LSERDY) != RESET)
 834              		.loc 1 579 13
 835 03a8 0AE0     		b	.L58
 836              	.L59:
 580:./Drivers/STM32F1xx_HAL_Driver/Src/stm32f1xx_hal_rcc.c ****       {
 581:./Drivers/STM32F1xx_HAL_Driver/Src/stm32f1xx_hal_rcc.c ****         if ((HAL_GetTick() - tickstart) > RCC_LSE_TIMEOUT_VALUE)
 837              		.loc 1 581 14
 838 03aa FFF7FEFF 		bl	HAL_GetTick
 839 03ae 0246     		mov	r2, r0
 840              		.loc 1 581 28
 841 03b0 3B69     		ldr	r3, [r7, #16]
 842 03b2 D31A     		subs	r3, r2, r3
 843              		.loc 1 581 12
 844 03b4 41F28832 		movw	r2, #5000
 845 03b8 9342     		cmp	r3, r2
 846 03ba 01D9     		bls	.L58
 582:./Drivers/STM32F1xx_HAL_Driver/Src/stm32f1xx_hal_rcc.c ****         {
 583:./Drivers/STM32F1xx_HAL_Driver/Src/stm32f1xx_hal_rcc.c ****           return HAL_TIMEOUT;
 847              		.loc 1 583 18
 848 03bc 0323     		movs	r3, #3
 849 03be 9BE0     		b	.L16
 850              	.L58:
 579:./Drivers/STM32F1xx_HAL_Driver/Src/stm32f1xx_hal_rcc.c ****       {
 851              		.loc 1 579 14
 852 03c0 404B     		ldr	r3, .L75
 853 03c2 1B6A     		ldr	r3, [r3, #32]
 854 03c4 03F00203 		and	r3, r3, #2
 579:./Drivers/STM32F1xx_HAL_Driver/Src/stm32f1xx_hal_rcc.c ****       {
 855              		.loc 1 579 13
 856 03c8 002B     		cmp	r3, #0
 857 03ca EED1     		bne	.L59
 858              	.L57:
 584:./Drivers/STM32F1xx_HAL_Driver/Src/stm32f1xx_hal_rcc.c ****         }
 585:./Drivers/STM32F1xx_HAL_Driver/Src/stm32f1xx_hal_rcc.c ****       }
 586:./Drivers/STM32F1xx_HAL_Driver/Src/stm32f1xx_hal_rcc.c ****     }
 587:./Drivers/STM32F1xx_HAL_Driver/Src/stm32f1xx_hal_rcc.c **** 
 588:./Drivers/STM32F1xx_HAL_Driver/Src/stm32f1xx_hal_rcc.c ****     /* Require to disable power clock if necessary */
 589:./Drivers/STM32F1xx_HAL_Driver/Src/stm32f1xx_hal_rcc.c ****     if (pwrclkchanged == SET)
 859              		.loc 1 589 8
 860 03cc FB7D     		ldrb	r3, [r7, #23]	@ zero_extendqisi2
 861 03ce 012B     		cmp	r3, #1
 862 03d0 05D1     		bne	.L45
 590:./Drivers/STM32F1xx_HAL_Driver/Src/stm32f1xx_hal_rcc.c ****     {
 591:./Drivers/STM32F1xx_HAL_Driver/Src/stm32f1xx_hal_rcc.c ****       __HAL_RCC_PWR_CLK_DISABLE();
 863              		.loc 1 591 7
 864 03d2 3C4B     		ldr	r3, .L75
 865 03d4 DB69     		ldr	r3, [r3, #28]
 866 03d6 3B4A     		ldr	r2, .L75
ARM GAS  C:\Users\ULTIMA~1\AppData\Local\Temp\cc1JA9tE.s 			page 27


 867 03d8 23F08053 		bic	r3, r3, #268435456
 868 03dc D361     		str	r3, [r2, #28]
 869              	.L45:
 870              	.LBE2:
 592:./Drivers/STM32F1xx_HAL_Driver/Src/stm32f1xx_hal_rcc.c ****     }
 593:./Drivers/STM32F1xx_HAL_Driver/Src/stm32f1xx_hal_rcc.c ****   }
 594:./Drivers/STM32F1xx_HAL_Driver/Src/stm32f1xx_hal_rcc.c **** 
 595:./Drivers/STM32F1xx_HAL_Driver/Src/stm32f1xx_hal_rcc.c **** #if defined(RCC_CR_PLL2ON)
 596:./Drivers/STM32F1xx_HAL_Driver/Src/stm32f1xx_hal_rcc.c ****   /*-------------------------------- PLL2 Configuration -----------------------*/
 597:./Drivers/STM32F1xx_HAL_Driver/Src/stm32f1xx_hal_rcc.c ****   /* Check the parameters */
 598:./Drivers/STM32F1xx_HAL_Driver/Src/stm32f1xx_hal_rcc.c ****   assert_param(IS_RCC_PLL2(RCC_OscInitStruct->PLL2.PLL2State));
 599:./Drivers/STM32F1xx_HAL_Driver/Src/stm32f1xx_hal_rcc.c ****   if ((RCC_OscInitStruct->PLL2.PLL2State) != RCC_PLL2_NONE)
 600:./Drivers/STM32F1xx_HAL_Driver/Src/stm32f1xx_hal_rcc.c ****   {
 601:./Drivers/STM32F1xx_HAL_Driver/Src/stm32f1xx_hal_rcc.c ****     /* This bit can not be cleared if the PLL2 clock is used indirectly as system
 602:./Drivers/STM32F1xx_HAL_Driver/Src/stm32f1xx_hal_rcc.c ****       clock (i.e. it is used as PLL clock entry that is used as system clock). */
 603:./Drivers/STM32F1xx_HAL_Driver/Src/stm32f1xx_hal_rcc.c ****     if ((__HAL_RCC_GET_PLL_OSCSOURCE() == RCC_PLLSOURCE_HSE) && \
 604:./Drivers/STM32F1xx_HAL_Driver/Src/stm32f1xx_hal_rcc.c ****         (__HAL_RCC_GET_SYSCLK_SOURCE() == RCC_SYSCLKSOURCE_STATUS_PLLCLK) && \
 605:./Drivers/STM32F1xx_HAL_Driver/Src/stm32f1xx_hal_rcc.c ****         ((READ_BIT(RCC->CFGR2, RCC_CFGR2_PREDIV1SRC)) == RCC_CFGR2_PREDIV1SRC_PLL2))
 606:./Drivers/STM32F1xx_HAL_Driver/Src/stm32f1xx_hal_rcc.c ****     {
 607:./Drivers/STM32F1xx_HAL_Driver/Src/stm32f1xx_hal_rcc.c ****       return HAL_ERROR;
 608:./Drivers/STM32F1xx_HAL_Driver/Src/stm32f1xx_hal_rcc.c ****     }
 609:./Drivers/STM32F1xx_HAL_Driver/Src/stm32f1xx_hal_rcc.c ****     else
 610:./Drivers/STM32F1xx_HAL_Driver/Src/stm32f1xx_hal_rcc.c ****     {
 611:./Drivers/STM32F1xx_HAL_Driver/Src/stm32f1xx_hal_rcc.c ****       if ((RCC_OscInitStruct->PLL2.PLL2State) == RCC_PLL2_ON)
 612:./Drivers/STM32F1xx_HAL_Driver/Src/stm32f1xx_hal_rcc.c ****       {
 613:./Drivers/STM32F1xx_HAL_Driver/Src/stm32f1xx_hal_rcc.c ****         /* Check the parameters */
 614:./Drivers/STM32F1xx_HAL_Driver/Src/stm32f1xx_hal_rcc.c ****         assert_param(IS_RCC_PLL2_MUL(RCC_OscInitStruct->PLL2.PLL2MUL));
 615:./Drivers/STM32F1xx_HAL_Driver/Src/stm32f1xx_hal_rcc.c ****         assert_param(IS_RCC_HSE_PREDIV2(RCC_OscInitStruct->PLL2.HSEPrediv2Value));
 616:./Drivers/STM32F1xx_HAL_Driver/Src/stm32f1xx_hal_rcc.c **** 
 617:./Drivers/STM32F1xx_HAL_Driver/Src/stm32f1xx_hal_rcc.c ****         /* Prediv2 can be written only when the PLLI2S is disabled. */
 618:./Drivers/STM32F1xx_HAL_Driver/Src/stm32f1xx_hal_rcc.c ****         /* Return an error only if new value is different from the programmed value */
 619:./Drivers/STM32F1xx_HAL_Driver/Src/stm32f1xx_hal_rcc.c ****         if (HAL_IS_BIT_SET(RCC->CR, RCC_CR_PLL3ON) && \
 620:./Drivers/STM32F1xx_HAL_Driver/Src/stm32f1xx_hal_rcc.c ****             (__HAL_RCC_HSE_GET_PREDIV2() != RCC_OscInitStruct->PLL2.HSEPrediv2Value))
 621:./Drivers/STM32F1xx_HAL_Driver/Src/stm32f1xx_hal_rcc.c ****         {
 622:./Drivers/STM32F1xx_HAL_Driver/Src/stm32f1xx_hal_rcc.c ****           return HAL_ERROR;
 623:./Drivers/STM32F1xx_HAL_Driver/Src/stm32f1xx_hal_rcc.c ****         }
 624:./Drivers/STM32F1xx_HAL_Driver/Src/stm32f1xx_hal_rcc.c **** 
 625:./Drivers/STM32F1xx_HAL_Driver/Src/stm32f1xx_hal_rcc.c ****         /* Disable the main PLL2. */
 626:./Drivers/STM32F1xx_HAL_Driver/Src/stm32f1xx_hal_rcc.c ****         __HAL_RCC_PLL2_DISABLE();
 627:./Drivers/STM32F1xx_HAL_Driver/Src/stm32f1xx_hal_rcc.c **** 
 628:./Drivers/STM32F1xx_HAL_Driver/Src/stm32f1xx_hal_rcc.c ****         /* Get Start Tick */
 629:./Drivers/STM32F1xx_HAL_Driver/Src/stm32f1xx_hal_rcc.c ****         tickstart = HAL_GetTick();
 630:./Drivers/STM32F1xx_HAL_Driver/Src/stm32f1xx_hal_rcc.c **** 
 631:./Drivers/STM32F1xx_HAL_Driver/Src/stm32f1xx_hal_rcc.c ****         /* Wait till PLL2 is disabled */
 632:./Drivers/STM32F1xx_HAL_Driver/Src/stm32f1xx_hal_rcc.c ****         while (__HAL_RCC_GET_FLAG(RCC_FLAG_PLL2RDY) != RESET)
 633:./Drivers/STM32F1xx_HAL_Driver/Src/stm32f1xx_hal_rcc.c ****         {
 634:./Drivers/STM32F1xx_HAL_Driver/Src/stm32f1xx_hal_rcc.c ****           if ((HAL_GetTick() - tickstart) > PLL2_TIMEOUT_VALUE)
 635:./Drivers/STM32F1xx_HAL_Driver/Src/stm32f1xx_hal_rcc.c ****           {
 636:./Drivers/STM32F1xx_HAL_Driver/Src/stm32f1xx_hal_rcc.c ****             return HAL_TIMEOUT;
 637:./Drivers/STM32F1xx_HAL_Driver/Src/stm32f1xx_hal_rcc.c ****           }
 638:./Drivers/STM32F1xx_HAL_Driver/Src/stm32f1xx_hal_rcc.c ****         }
 639:./Drivers/STM32F1xx_HAL_Driver/Src/stm32f1xx_hal_rcc.c **** 
 640:./Drivers/STM32F1xx_HAL_Driver/Src/stm32f1xx_hal_rcc.c ****         /* Configure the HSE prediv2 factor --------------------------------*/
 641:./Drivers/STM32F1xx_HAL_Driver/Src/stm32f1xx_hal_rcc.c ****         __HAL_RCC_HSE_PREDIV2_CONFIG(RCC_OscInitStruct->PLL2.HSEPrediv2Value);
 642:./Drivers/STM32F1xx_HAL_Driver/Src/stm32f1xx_hal_rcc.c **** 
 643:./Drivers/STM32F1xx_HAL_Driver/Src/stm32f1xx_hal_rcc.c ****         /* Configure the main PLL2 multiplication factors. */
 644:./Drivers/STM32F1xx_HAL_Driver/Src/stm32f1xx_hal_rcc.c ****         __HAL_RCC_PLL2_CONFIG(RCC_OscInitStruct->PLL2.PLL2MUL);
ARM GAS  C:\Users\ULTIMA~1\AppData\Local\Temp\cc1JA9tE.s 			page 28


 645:./Drivers/STM32F1xx_HAL_Driver/Src/stm32f1xx_hal_rcc.c **** 
 646:./Drivers/STM32F1xx_HAL_Driver/Src/stm32f1xx_hal_rcc.c ****         /* Enable the main PLL2. */
 647:./Drivers/STM32F1xx_HAL_Driver/Src/stm32f1xx_hal_rcc.c ****         __HAL_RCC_PLL2_ENABLE();
 648:./Drivers/STM32F1xx_HAL_Driver/Src/stm32f1xx_hal_rcc.c **** 
 649:./Drivers/STM32F1xx_HAL_Driver/Src/stm32f1xx_hal_rcc.c ****         /* Get Start Tick */
 650:./Drivers/STM32F1xx_HAL_Driver/Src/stm32f1xx_hal_rcc.c ****         tickstart = HAL_GetTick();
 651:./Drivers/STM32F1xx_HAL_Driver/Src/stm32f1xx_hal_rcc.c **** 
 652:./Drivers/STM32F1xx_HAL_Driver/Src/stm32f1xx_hal_rcc.c ****         /* Wait till PLL2 is ready */
 653:./Drivers/STM32F1xx_HAL_Driver/Src/stm32f1xx_hal_rcc.c ****         while (__HAL_RCC_GET_FLAG(RCC_FLAG_PLL2RDY)  == RESET)
 654:./Drivers/STM32F1xx_HAL_Driver/Src/stm32f1xx_hal_rcc.c ****         {
 655:./Drivers/STM32F1xx_HAL_Driver/Src/stm32f1xx_hal_rcc.c ****           if ((HAL_GetTick() - tickstart) > PLL2_TIMEOUT_VALUE)
 656:./Drivers/STM32F1xx_HAL_Driver/Src/stm32f1xx_hal_rcc.c ****           {
 657:./Drivers/STM32F1xx_HAL_Driver/Src/stm32f1xx_hal_rcc.c ****             return HAL_TIMEOUT;
 658:./Drivers/STM32F1xx_HAL_Driver/Src/stm32f1xx_hal_rcc.c ****           }
 659:./Drivers/STM32F1xx_HAL_Driver/Src/stm32f1xx_hal_rcc.c ****         }
 660:./Drivers/STM32F1xx_HAL_Driver/Src/stm32f1xx_hal_rcc.c ****       }
 661:./Drivers/STM32F1xx_HAL_Driver/Src/stm32f1xx_hal_rcc.c ****       else
 662:./Drivers/STM32F1xx_HAL_Driver/Src/stm32f1xx_hal_rcc.c ****       {
 663:./Drivers/STM32F1xx_HAL_Driver/Src/stm32f1xx_hal_rcc.c ****         /* Set PREDIV1 source to HSE */
 664:./Drivers/STM32F1xx_HAL_Driver/Src/stm32f1xx_hal_rcc.c ****         CLEAR_BIT(RCC->CFGR2, RCC_CFGR2_PREDIV1SRC);
 665:./Drivers/STM32F1xx_HAL_Driver/Src/stm32f1xx_hal_rcc.c **** 
 666:./Drivers/STM32F1xx_HAL_Driver/Src/stm32f1xx_hal_rcc.c ****         /* Disable the main PLL2. */
 667:./Drivers/STM32F1xx_HAL_Driver/Src/stm32f1xx_hal_rcc.c ****         __HAL_RCC_PLL2_DISABLE();
 668:./Drivers/STM32F1xx_HAL_Driver/Src/stm32f1xx_hal_rcc.c **** 
 669:./Drivers/STM32F1xx_HAL_Driver/Src/stm32f1xx_hal_rcc.c ****         /* Get Start Tick */
 670:./Drivers/STM32F1xx_HAL_Driver/Src/stm32f1xx_hal_rcc.c ****         tickstart = HAL_GetTick();
 671:./Drivers/STM32F1xx_HAL_Driver/Src/stm32f1xx_hal_rcc.c **** 
 672:./Drivers/STM32F1xx_HAL_Driver/Src/stm32f1xx_hal_rcc.c ****         /* Wait till PLL2 is disabled */
 673:./Drivers/STM32F1xx_HAL_Driver/Src/stm32f1xx_hal_rcc.c ****         while (__HAL_RCC_GET_FLAG(RCC_FLAG_PLL2RDY)  != RESET)
 674:./Drivers/STM32F1xx_HAL_Driver/Src/stm32f1xx_hal_rcc.c ****         {
 675:./Drivers/STM32F1xx_HAL_Driver/Src/stm32f1xx_hal_rcc.c ****           if ((HAL_GetTick() - tickstart) > PLL2_TIMEOUT_VALUE)
 676:./Drivers/STM32F1xx_HAL_Driver/Src/stm32f1xx_hal_rcc.c ****           {
 677:./Drivers/STM32F1xx_HAL_Driver/Src/stm32f1xx_hal_rcc.c ****             return HAL_TIMEOUT;
 678:./Drivers/STM32F1xx_HAL_Driver/Src/stm32f1xx_hal_rcc.c ****           }
 679:./Drivers/STM32F1xx_HAL_Driver/Src/stm32f1xx_hal_rcc.c ****         }
 680:./Drivers/STM32F1xx_HAL_Driver/Src/stm32f1xx_hal_rcc.c ****       }
 681:./Drivers/STM32F1xx_HAL_Driver/Src/stm32f1xx_hal_rcc.c ****     }
 682:./Drivers/STM32F1xx_HAL_Driver/Src/stm32f1xx_hal_rcc.c ****   }
 683:./Drivers/STM32F1xx_HAL_Driver/Src/stm32f1xx_hal_rcc.c **** 
 684:./Drivers/STM32F1xx_HAL_Driver/Src/stm32f1xx_hal_rcc.c **** #endif /* RCC_CR_PLL2ON */
 685:./Drivers/STM32F1xx_HAL_Driver/Src/stm32f1xx_hal_rcc.c ****   /*-------------------------------- PLL Configuration -----------------------*/
 686:./Drivers/STM32F1xx_HAL_Driver/Src/stm32f1xx_hal_rcc.c ****   /* Check the parameters */
 687:./Drivers/STM32F1xx_HAL_Driver/Src/stm32f1xx_hal_rcc.c ****   assert_param(IS_RCC_PLL(RCC_OscInitStruct->PLL.PLLState));
 688:./Drivers/STM32F1xx_HAL_Driver/Src/stm32f1xx_hal_rcc.c ****   if ((RCC_OscInitStruct->PLL.PLLState) != RCC_PLL_NONE)
 871              		.loc 1 688 30
 872 03de 7B68     		ldr	r3, [r7, #4]
 873 03e0 DB69     		ldr	r3, [r3, #28]
 874              		.loc 1 688 6
 875 03e2 002B     		cmp	r3, #0
 876 03e4 00F08780 		beq	.L60
 689:./Drivers/STM32F1xx_HAL_Driver/Src/stm32f1xx_hal_rcc.c ****   {
 690:./Drivers/STM32F1xx_HAL_Driver/Src/stm32f1xx_hal_rcc.c ****     /* Check if the PLL is used as system clock or not */
 691:./Drivers/STM32F1xx_HAL_Driver/Src/stm32f1xx_hal_rcc.c ****     if (__HAL_RCC_GET_SYSCLK_SOURCE() != RCC_SYSCLKSOURCE_STATUS_PLLCLK)
 877              		.loc 1 691 9
 878 03e8 364B     		ldr	r3, .L75
 879 03ea 5B68     		ldr	r3, [r3, #4]
 880 03ec 03F00C03 		and	r3, r3, #12
ARM GAS  C:\Users\ULTIMA~1\AppData\Local\Temp\cc1JA9tE.s 			page 29


 881              		.loc 1 691 8
 882 03f0 082B     		cmp	r3, #8
 883 03f2 61D0     		beq	.L61
 692:./Drivers/STM32F1xx_HAL_Driver/Src/stm32f1xx_hal_rcc.c ****     {
 693:./Drivers/STM32F1xx_HAL_Driver/Src/stm32f1xx_hal_rcc.c ****       if ((RCC_OscInitStruct->PLL.PLLState) == RCC_PLL_ON)
 884              		.loc 1 693 34
 885 03f4 7B68     		ldr	r3, [r7, #4]
 886 03f6 DB69     		ldr	r3, [r3, #28]
 887              		.loc 1 693 10
 888 03f8 022B     		cmp	r3, #2
 889 03fa 46D1     		bne	.L62
 694:./Drivers/STM32F1xx_HAL_Driver/Src/stm32f1xx_hal_rcc.c ****       {
 695:./Drivers/STM32F1xx_HAL_Driver/Src/stm32f1xx_hal_rcc.c ****         /* Check the parameters */
 696:./Drivers/STM32F1xx_HAL_Driver/Src/stm32f1xx_hal_rcc.c ****         assert_param(IS_RCC_PLLSOURCE(RCC_OscInitStruct->PLL.PLLSource));
 697:./Drivers/STM32F1xx_HAL_Driver/Src/stm32f1xx_hal_rcc.c ****         assert_param(IS_RCC_PLL_MUL(RCC_OscInitStruct->PLL.PLLMUL));
 698:./Drivers/STM32F1xx_HAL_Driver/Src/stm32f1xx_hal_rcc.c **** 
 699:./Drivers/STM32F1xx_HAL_Driver/Src/stm32f1xx_hal_rcc.c ****         /* Disable the main PLL. */
 700:./Drivers/STM32F1xx_HAL_Driver/Src/stm32f1xx_hal_rcc.c ****         __HAL_RCC_PLL_DISABLE();
 890              		.loc 1 700 9
 891 03fc 334B     		ldr	r3, .L75+8
 892 03fe 0022     		movs	r2, #0
 893 0400 1A60     		str	r2, [r3]
 701:./Drivers/STM32F1xx_HAL_Driver/Src/stm32f1xx_hal_rcc.c **** 
 702:./Drivers/STM32F1xx_HAL_Driver/Src/stm32f1xx_hal_rcc.c ****         /* Get Start Tick */
 703:./Drivers/STM32F1xx_HAL_Driver/Src/stm32f1xx_hal_rcc.c ****         tickstart = HAL_GetTick();
 894              		.loc 1 703 21
 895 0402 FFF7FEFF 		bl	HAL_GetTick
 896 0406 3861     		str	r0, [r7, #16]
 704:./Drivers/STM32F1xx_HAL_Driver/Src/stm32f1xx_hal_rcc.c **** 
 705:./Drivers/STM32F1xx_HAL_Driver/Src/stm32f1xx_hal_rcc.c ****         /* Wait till PLL is disabled */
 706:./Drivers/STM32F1xx_HAL_Driver/Src/stm32f1xx_hal_rcc.c ****         while (__HAL_RCC_GET_FLAG(RCC_FLAG_PLLRDY)  != RESET)
 897              		.loc 1 706 15
 898 0408 08E0     		b	.L63
 899              	.L64:
 707:./Drivers/STM32F1xx_HAL_Driver/Src/stm32f1xx_hal_rcc.c ****         {
 708:./Drivers/STM32F1xx_HAL_Driver/Src/stm32f1xx_hal_rcc.c ****           if ((HAL_GetTick() - tickstart) > PLL_TIMEOUT_VALUE)
 900              		.loc 1 708 16
 901 040a FFF7FEFF 		bl	HAL_GetTick
 902 040e 0246     		mov	r2, r0
 903              		.loc 1 708 30
 904 0410 3B69     		ldr	r3, [r7, #16]
 905 0412 D31A     		subs	r3, r2, r3
 906              		.loc 1 708 14
 907 0414 022B     		cmp	r3, #2
 908 0416 01D9     		bls	.L63
 709:./Drivers/STM32F1xx_HAL_Driver/Src/stm32f1xx_hal_rcc.c ****           {
 710:./Drivers/STM32F1xx_HAL_Driver/Src/stm32f1xx_hal_rcc.c ****             return HAL_TIMEOUT;
 909              		.loc 1 710 20
 910 0418 0323     		movs	r3, #3
 911 041a 6DE0     		b	.L16
 912              	.L63:
 706:./Drivers/STM32F1xx_HAL_Driver/Src/stm32f1xx_hal_rcc.c ****         {
 913              		.loc 1 706 16
 914 041c 294B     		ldr	r3, .L75
 915 041e 1B68     		ldr	r3, [r3]
 916 0420 03F00073 		and	r3, r3, #33554432
 706:./Drivers/STM32F1xx_HAL_Driver/Src/stm32f1xx_hal_rcc.c ****         {
ARM GAS  C:\Users\ULTIMA~1\AppData\Local\Temp\cc1JA9tE.s 			page 30


 917              		.loc 1 706 15
 918 0424 002B     		cmp	r3, #0
 919 0426 F0D1     		bne	.L64
 711:./Drivers/STM32F1xx_HAL_Driver/Src/stm32f1xx_hal_rcc.c ****           }
 712:./Drivers/STM32F1xx_HAL_Driver/Src/stm32f1xx_hal_rcc.c ****         }
 713:./Drivers/STM32F1xx_HAL_Driver/Src/stm32f1xx_hal_rcc.c **** 
 714:./Drivers/STM32F1xx_HAL_Driver/Src/stm32f1xx_hal_rcc.c ****         /* Configure the HSE prediv factor --------------------------------*/
 715:./Drivers/STM32F1xx_HAL_Driver/Src/stm32f1xx_hal_rcc.c ****         /* It can be written only when the PLL is disabled. Not used in PLL source is different tha
 716:./Drivers/STM32F1xx_HAL_Driver/Src/stm32f1xx_hal_rcc.c ****         if (RCC_OscInitStruct->PLL.PLLSource == RCC_PLLSOURCE_HSE)
 920              		.loc 1 716 35
 921 0428 7B68     		ldr	r3, [r7, #4]
 922 042a 1B6A     		ldr	r3, [r3, #32]
 923              		.loc 1 716 12
 924 042c B3F5803F 		cmp	r3, #65536
 925 0430 08D1     		bne	.L65
 717:./Drivers/STM32F1xx_HAL_Driver/Src/stm32f1xx_hal_rcc.c ****         {
 718:./Drivers/STM32F1xx_HAL_Driver/Src/stm32f1xx_hal_rcc.c ****           /* Check the parameter */
 719:./Drivers/STM32F1xx_HAL_Driver/Src/stm32f1xx_hal_rcc.c ****           assert_param(IS_RCC_HSE_PREDIV(RCC_OscInitStruct->HSEPredivValue));
 720:./Drivers/STM32F1xx_HAL_Driver/Src/stm32f1xx_hal_rcc.c **** #if defined(RCC_CFGR2_PREDIV1SRC)
 721:./Drivers/STM32F1xx_HAL_Driver/Src/stm32f1xx_hal_rcc.c ****           assert_param(IS_RCC_PREDIV1_SOURCE(RCC_OscInitStruct->Prediv1Source));
 722:./Drivers/STM32F1xx_HAL_Driver/Src/stm32f1xx_hal_rcc.c **** 
 723:./Drivers/STM32F1xx_HAL_Driver/Src/stm32f1xx_hal_rcc.c ****           /* Set PREDIV1 source */
 724:./Drivers/STM32F1xx_HAL_Driver/Src/stm32f1xx_hal_rcc.c ****           SET_BIT(RCC->CFGR2, RCC_OscInitStruct->Prediv1Source);
 725:./Drivers/STM32F1xx_HAL_Driver/Src/stm32f1xx_hal_rcc.c **** #endif /* RCC_CFGR2_PREDIV1SRC */
 726:./Drivers/STM32F1xx_HAL_Driver/Src/stm32f1xx_hal_rcc.c **** 
 727:./Drivers/STM32F1xx_HAL_Driver/Src/stm32f1xx_hal_rcc.c ****           /* Set PREDIV1 Value */
 728:./Drivers/STM32F1xx_HAL_Driver/Src/stm32f1xx_hal_rcc.c ****           __HAL_RCC_HSE_PREDIV_CONFIG(RCC_OscInitStruct->HSEPredivValue);
 926              		.loc 1 728 11
 927 0432 244B     		ldr	r3, .L75
 928 0434 5B68     		ldr	r3, [r3, #4]
 929 0436 23F40032 		bic	r2, r3, #131072
 930 043a 7B68     		ldr	r3, [r7, #4]
 931 043c 9B68     		ldr	r3, [r3, #8]
 932 043e 2149     		ldr	r1, .L75
 933 0440 1343     		orrs	r3, r3, r2
 934 0442 4B60     		str	r3, [r1, #4]
 935              	.L65:
 729:./Drivers/STM32F1xx_HAL_Driver/Src/stm32f1xx_hal_rcc.c ****         }
 730:./Drivers/STM32F1xx_HAL_Driver/Src/stm32f1xx_hal_rcc.c **** 
 731:./Drivers/STM32F1xx_HAL_Driver/Src/stm32f1xx_hal_rcc.c ****         /* Configure the main PLL clock source and multiplication factors. */
 732:./Drivers/STM32F1xx_HAL_Driver/Src/stm32f1xx_hal_rcc.c ****         __HAL_RCC_PLL_CONFIG(RCC_OscInitStruct->PLL.PLLSource,
 936              		.loc 1 732 9
 937 0444 1F4B     		ldr	r3, .L75
 938 0446 5B68     		ldr	r3, [r3, #4]
 939 0448 23F47412 		bic	r2, r3, #3997696
 940 044c 7B68     		ldr	r3, [r7, #4]
 941 044e 196A     		ldr	r1, [r3, #32]
 942 0450 7B68     		ldr	r3, [r7, #4]
 943 0452 5B6A     		ldr	r3, [r3, #36]
 944 0454 0B43     		orrs	r3, r3, r1
 945 0456 1B49     		ldr	r1, .L75
 946 0458 1343     		orrs	r3, r3, r2
 947 045a 4B60     		str	r3, [r1, #4]
 733:./Drivers/STM32F1xx_HAL_Driver/Src/stm32f1xx_hal_rcc.c ****                              RCC_OscInitStruct->PLL.PLLMUL);
 734:./Drivers/STM32F1xx_HAL_Driver/Src/stm32f1xx_hal_rcc.c ****         /* Enable the main PLL. */
 735:./Drivers/STM32F1xx_HAL_Driver/Src/stm32f1xx_hal_rcc.c ****         __HAL_RCC_PLL_ENABLE();
 948              		.loc 1 735 9
ARM GAS  C:\Users\ULTIMA~1\AppData\Local\Temp\cc1JA9tE.s 			page 31


 949 045c 1B4B     		ldr	r3, .L75+8
 950 045e 0122     		movs	r2, #1
 951 0460 1A60     		str	r2, [r3]
 736:./Drivers/STM32F1xx_HAL_Driver/Src/stm32f1xx_hal_rcc.c **** 
 737:./Drivers/STM32F1xx_HAL_Driver/Src/stm32f1xx_hal_rcc.c ****         /* Get Start Tick */
 738:./Drivers/STM32F1xx_HAL_Driver/Src/stm32f1xx_hal_rcc.c ****         tickstart = HAL_GetTick();
 952              		.loc 1 738 21
 953 0462 FFF7FEFF 		bl	HAL_GetTick
 954 0466 3861     		str	r0, [r7, #16]
 739:./Drivers/STM32F1xx_HAL_Driver/Src/stm32f1xx_hal_rcc.c **** 
 740:./Drivers/STM32F1xx_HAL_Driver/Src/stm32f1xx_hal_rcc.c ****         /* Wait till PLL is ready */
 741:./Drivers/STM32F1xx_HAL_Driver/Src/stm32f1xx_hal_rcc.c ****         while (__HAL_RCC_GET_FLAG(RCC_FLAG_PLLRDY)  == RESET)
 955              		.loc 1 741 15
 956 0468 08E0     		b	.L66
 957              	.L67:
 742:./Drivers/STM32F1xx_HAL_Driver/Src/stm32f1xx_hal_rcc.c ****         {
 743:./Drivers/STM32F1xx_HAL_Driver/Src/stm32f1xx_hal_rcc.c ****           if ((HAL_GetTick() - tickstart) > PLL_TIMEOUT_VALUE)
 958              		.loc 1 743 16
 959 046a FFF7FEFF 		bl	HAL_GetTick
 960 046e 0246     		mov	r2, r0
 961              		.loc 1 743 30
 962 0470 3B69     		ldr	r3, [r7, #16]
 963 0472 D31A     		subs	r3, r2, r3
 964              		.loc 1 743 14
 965 0474 022B     		cmp	r3, #2
 966 0476 01D9     		bls	.L66
 744:./Drivers/STM32F1xx_HAL_Driver/Src/stm32f1xx_hal_rcc.c ****           {
 745:./Drivers/STM32F1xx_HAL_Driver/Src/stm32f1xx_hal_rcc.c ****             return HAL_TIMEOUT;
 967              		.loc 1 745 20
 968 0478 0323     		movs	r3, #3
 969 047a 3DE0     		b	.L16
 970              	.L66:
 741:./Drivers/STM32F1xx_HAL_Driver/Src/stm32f1xx_hal_rcc.c ****         {
 971              		.loc 1 741 16
 972 047c 114B     		ldr	r3, .L75
 973 047e 1B68     		ldr	r3, [r3]
 974 0480 03F00073 		and	r3, r3, #33554432
 741:./Drivers/STM32F1xx_HAL_Driver/Src/stm32f1xx_hal_rcc.c ****         {
 975              		.loc 1 741 15
 976 0484 002B     		cmp	r3, #0
 977 0486 F0D0     		beq	.L67
 978 0488 35E0     		b	.L60
 979              	.L62:
 746:./Drivers/STM32F1xx_HAL_Driver/Src/stm32f1xx_hal_rcc.c ****           }
 747:./Drivers/STM32F1xx_HAL_Driver/Src/stm32f1xx_hal_rcc.c ****         }
 748:./Drivers/STM32F1xx_HAL_Driver/Src/stm32f1xx_hal_rcc.c ****       }
 749:./Drivers/STM32F1xx_HAL_Driver/Src/stm32f1xx_hal_rcc.c ****       else
 750:./Drivers/STM32F1xx_HAL_Driver/Src/stm32f1xx_hal_rcc.c ****       {
 751:./Drivers/STM32F1xx_HAL_Driver/Src/stm32f1xx_hal_rcc.c ****         /* Disable the main PLL. */
 752:./Drivers/STM32F1xx_HAL_Driver/Src/stm32f1xx_hal_rcc.c ****         __HAL_RCC_PLL_DISABLE();
 980              		.loc 1 752 9
 981 048a 104B     		ldr	r3, .L75+8
 982 048c 0022     		movs	r2, #0
 983 048e 1A60     		str	r2, [r3]
 753:./Drivers/STM32F1xx_HAL_Driver/Src/stm32f1xx_hal_rcc.c **** 
 754:./Drivers/STM32F1xx_HAL_Driver/Src/stm32f1xx_hal_rcc.c ****         /* Get Start Tick */
 755:./Drivers/STM32F1xx_HAL_Driver/Src/stm32f1xx_hal_rcc.c ****         tickstart = HAL_GetTick();
ARM GAS  C:\Users\ULTIMA~1\AppData\Local\Temp\cc1JA9tE.s 			page 32


 984              		.loc 1 755 21
 985 0490 FFF7FEFF 		bl	HAL_GetTick
 986 0494 3861     		str	r0, [r7, #16]
 756:./Drivers/STM32F1xx_HAL_Driver/Src/stm32f1xx_hal_rcc.c **** 
 757:./Drivers/STM32F1xx_HAL_Driver/Src/stm32f1xx_hal_rcc.c ****         /* Wait till PLL is disabled */
 758:./Drivers/STM32F1xx_HAL_Driver/Src/stm32f1xx_hal_rcc.c ****         while (__HAL_RCC_GET_FLAG(RCC_FLAG_PLLRDY)  != RESET)
 987              		.loc 1 758 15
 988 0496 08E0     		b	.L68
 989              	.L69:
 759:./Drivers/STM32F1xx_HAL_Driver/Src/stm32f1xx_hal_rcc.c ****         {
 760:./Drivers/STM32F1xx_HAL_Driver/Src/stm32f1xx_hal_rcc.c ****           if ((HAL_GetTick() - tickstart) > PLL_TIMEOUT_VALUE)
 990              		.loc 1 760 16
 991 0498 FFF7FEFF 		bl	HAL_GetTick
 992 049c 0246     		mov	r2, r0
 993              		.loc 1 760 30
 994 049e 3B69     		ldr	r3, [r7, #16]
 995 04a0 D31A     		subs	r3, r2, r3
 996              		.loc 1 760 14
 997 04a2 022B     		cmp	r3, #2
 998 04a4 01D9     		bls	.L68
 761:./Drivers/STM32F1xx_HAL_Driver/Src/stm32f1xx_hal_rcc.c ****           {
 762:./Drivers/STM32F1xx_HAL_Driver/Src/stm32f1xx_hal_rcc.c ****             return HAL_TIMEOUT;
 999              		.loc 1 762 20
 1000 04a6 0323     		movs	r3, #3
 1001 04a8 26E0     		b	.L16
 1002              	.L68:
 758:./Drivers/STM32F1xx_HAL_Driver/Src/stm32f1xx_hal_rcc.c ****         {
 1003              		.loc 1 758 16
 1004 04aa 064B     		ldr	r3, .L75
 1005 04ac 1B68     		ldr	r3, [r3]
 1006 04ae 03F00073 		and	r3, r3, #33554432
 758:./Drivers/STM32F1xx_HAL_Driver/Src/stm32f1xx_hal_rcc.c ****         {
 1007              		.loc 1 758 15
 1008 04b2 002B     		cmp	r3, #0
 1009 04b4 F0D1     		bne	.L69
 1010 04b6 1EE0     		b	.L60
 1011              	.L61:
 763:./Drivers/STM32F1xx_HAL_Driver/Src/stm32f1xx_hal_rcc.c ****           }
 764:./Drivers/STM32F1xx_HAL_Driver/Src/stm32f1xx_hal_rcc.c ****         }
 765:./Drivers/STM32F1xx_HAL_Driver/Src/stm32f1xx_hal_rcc.c ****       }
 766:./Drivers/STM32F1xx_HAL_Driver/Src/stm32f1xx_hal_rcc.c ****     }
 767:./Drivers/STM32F1xx_HAL_Driver/Src/stm32f1xx_hal_rcc.c ****     else
 768:./Drivers/STM32F1xx_HAL_Driver/Src/stm32f1xx_hal_rcc.c ****     {
 769:./Drivers/STM32F1xx_HAL_Driver/Src/stm32f1xx_hal_rcc.c ****       /* Check if there is a request to disable the PLL used as System clock source */
 770:./Drivers/STM32F1xx_HAL_Driver/Src/stm32f1xx_hal_rcc.c ****       if ((RCC_OscInitStruct->PLL.PLLState) == RCC_PLL_OFF)
 1012              		.loc 1 770 34
 1013 04b8 7B68     		ldr	r3, [r7, #4]
 1014 04ba DB69     		ldr	r3, [r3, #28]
 1015              		.loc 1 770 10
 1016 04bc 012B     		cmp	r3, #1
 1017 04be 07D1     		bne	.L70
 771:./Drivers/STM32F1xx_HAL_Driver/Src/stm32f1xx_hal_rcc.c ****       {
 772:./Drivers/STM32F1xx_HAL_Driver/Src/stm32f1xx_hal_rcc.c ****         return HAL_ERROR;
 1018              		.loc 1 772 16
 1019 04c0 0123     		movs	r3, #1
 1020 04c2 19E0     		b	.L16
 1021              	.L76:
ARM GAS  C:\Users\ULTIMA~1\AppData\Local\Temp\cc1JA9tE.s 			page 33


 1022              		.align	2
 1023              	.L75:
 1024 04c4 00100240 		.word	1073876992
 1025 04c8 00700040 		.word	1073770496
 1026 04cc 60004242 		.word	1111621728
 1027              	.L70:
 773:./Drivers/STM32F1xx_HAL_Driver/Src/stm32f1xx_hal_rcc.c ****       }
 774:./Drivers/STM32F1xx_HAL_Driver/Src/stm32f1xx_hal_rcc.c ****       else
 775:./Drivers/STM32F1xx_HAL_Driver/Src/stm32f1xx_hal_rcc.c ****       {
 776:./Drivers/STM32F1xx_HAL_Driver/Src/stm32f1xx_hal_rcc.c ****         /* Do not return HAL_ERROR if request repeats the current configuration */
 777:./Drivers/STM32F1xx_HAL_Driver/Src/stm32f1xx_hal_rcc.c ****         pll_config = RCC->CFGR;
 1028              		.loc 1 777 25
 1029 04d0 0B4B     		ldr	r3, .L77
 1030              		.loc 1 777 20
 1031 04d2 5B68     		ldr	r3, [r3, #4]
 1032 04d4 FB60     		str	r3, [r7, #12]
 778:./Drivers/STM32F1xx_HAL_Driver/Src/stm32f1xx_hal_rcc.c ****         if ((READ_BIT(pll_config, RCC_CFGR_PLLSRC) != RCC_OscInitStruct->PLL.PLLSource) ||
 1033              		.loc 1 778 14
 1034 04d6 FB68     		ldr	r3, [r7, #12]
 1035 04d8 03F48032 		and	r2, r3, #65536
 1036              		.loc 1 778 77
 1037 04dc 7B68     		ldr	r3, [r7, #4]
 1038 04de 1B6A     		ldr	r3, [r3, #32]
 1039              		.loc 1 778 12
 1040 04e0 9A42     		cmp	r2, r3
 1041 04e2 06D1     		bne	.L71
 779:./Drivers/STM32F1xx_HAL_Driver/Src/stm32f1xx_hal_rcc.c ****             (READ_BIT(pll_config, RCC_CFGR_PLLMULL) != RCC_OscInitStruct->PLL.PLLMUL))
 1042              		.loc 1 779 14 discriminator 1
 1043 04e4 FB68     		ldr	r3, [r7, #12]
 1044 04e6 03F47012 		and	r2, r3, #3932160
 1045              		.loc 1 779 78 discriminator 1
 1046 04ea 7B68     		ldr	r3, [r7, #4]
 1047 04ec 5B6A     		ldr	r3, [r3, #36]
 778:./Drivers/STM32F1xx_HAL_Driver/Src/stm32f1xx_hal_rcc.c ****         if ((READ_BIT(pll_config, RCC_CFGR_PLLSRC) != RCC_OscInitStruct->PLL.PLLSource) ||
 1048              		.loc 1 778 89 discriminator 1
 1049 04ee 9A42     		cmp	r2, r3
 1050 04f0 01D0     		beq	.L60
 1051              	.L71:
 780:./Drivers/STM32F1xx_HAL_Driver/Src/stm32f1xx_hal_rcc.c ****         {
 781:./Drivers/STM32F1xx_HAL_Driver/Src/stm32f1xx_hal_rcc.c ****           return HAL_ERROR;
 1052              		.loc 1 781 18
 1053 04f2 0123     		movs	r3, #1
 1054 04f4 00E0     		b	.L16
 1055              	.L60:
 782:./Drivers/STM32F1xx_HAL_Driver/Src/stm32f1xx_hal_rcc.c ****         }
 783:./Drivers/STM32F1xx_HAL_Driver/Src/stm32f1xx_hal_rcc.c ****       }
 784:./Drivers/STM32F1xx_HAL_Driver/Src/stm32f1xx_hal_rcc.c ****     }
 785:./Drivers/STM32F1xx_HAL_Driver/Src/stm32f1xx_hal_rcc.c ****   }
 786:./Drivers/STM32F1xx_HAL_Driver/Src/stm32f1xx_hal_rcc.c **** 
 787:./Drivers/STM32F1xx_HAL_Driver/Src/stm32f1xx_hal_rcc.c ****   return HAL_OK;
 1056              		.loc 1 787 10
 1057 04f6 0023     		movs	r3, #0
 1058              	.L16:
 788:./Drivers/STM32F1xx_HAL_Driver/Src/stm32f1xx_hal_rcc.c **** }
 1059              		.loc 1 788 1
 1060 04f8 1846     		mov	r0, r3
 1061 04fa 1837     		adds	r7, r7, #24
ARM GAS  C:\Users\ULTIMA~1\AppData\Local\Temp\cc1JA9tE.s 			page 34


 1062              		.cfi_def_cfa_offset 8
 1063 04fc BD46     		mov	sp, r7
 1064              		.cfi_def_cfa_register 13
 1065              		@ sp needed
 1066 04fe 80BD     		pop	{r7, pc}
 1067              	.L78:
 1068              		.align	2
 1069              	.L77:
 1070 0500 00100240 		.word	1073876992
 1071              		.cfi_endproc
 1072              	.LFE66:
 1074              		.section	.text.HAL_RCC_ClockConfig,"ax",%progbits
 1075              		.align	1
 1076              		.global	HAL_RCC_ClockConfig
 1077              		.syntax unified
 1078              		.thumb
 1079              		.thumb_func
 1081              	HAL_RCC_ClockConfig:
 1082              	.LFB67:
 789:./Drivers/STM32F1xx_HAL_Driver/Src/stm32f1xx_hal_rcc.c **** 
 790:./Drivers/STM32F1xx_HAL_Driver/Src/stm32f1xx_hal_rcc.c **** /**
 791:./Drivers/STM32F1xx_HAL_Driver/Src/stm32f1xx_hal_rcc.c ****   * @brief  Initializes the CPU, AHB and APB buses clocks according to the specified
 792:./Drivers/STM32F1xx_HAL_Driver/Src/stm32f1xx_hal_rcc.c ****   *         parameters in the RCC_ClkInitStruct.
 793:./Drivers/STM32F1xx_HAL_Driver/Src/stm32f1xx_hal_rcc.c ****   * @param  RCC_ClkInitStruct pointer to an RCC_OscInitTypeDef structure that
 794:./Drivers/STM32F1xx_HAL_Driver/Src/stm32f1xx_hal_rcc.c ****   *         contains the configuration information for the RCC peripheral.
 795:./Drivers/STM32F1xx_HAL_Driver/Src/stm32f1xx_hal_rcc.c ****   * @param  FLatency FLASH Latency
 796:./Drivers/STM32F1xx_HAL_Driver/Src/stm32f1xx_hal_rcc.c ****   *          The value of this parameter depend on device used within the same series
 797:./Drivers/STM32F1xx_HAL_Driver/Src/stm32f1xx_hal_rcc.c ****   * @note   The SystemCoreClock CMSIS variable is used to store System Clock Frequency
 798:./Drivers/STM32F1xx_HAL_Driver/Src/stm32f1xx_hal_rcc.c ****   *         and updated by @ref HAL_RCC_GetHCLKFreq() function called within this function
 799:./Drivers/STM32F1xx_HAL_Driver/Src/stm32f1xx_hal_rcc.c ****   *
 800:./Drivers/STM32F1xx_HAL_Driver/Src/stm32f1xx_hal_rcc.c ****   * @note   The HSI is used (enabled by hardware) as system clock source after
 801:./Drivers/STM32F1xx_HAL_Driver/Src/stm32f1xx_hal_rcc.c ****   *         start-up from Reset, wake-up from STOP and STANDBY mode, or in case
 802:./Drivers/STM32F1xx_HAL_Driver/Src/stm32f1xx_hal_rcc.c ****   *         of failure of the HSE used directly or indirectly as system clock
 803:./Drivers/STM32F1xx_HAL_Driver/Src/stm32f1xx_hal_rcc.c ****   *         (if the Clock Security System CSS is enabled).
 804:./Drivers/STM32F1xx_HAL_Driver/Src/stm32f1xx_hal_rcc.c ****   *
 805:./Drivers/STM32F1xx_HAL_Driver/Src/stm32f1xx_hal_rcc.c ****   * @note   A switch from one clock source to another occurs only if the target
 806:./Drivers/STM32F1xx_HAL_Driver/Src/stm32f1xx_hal_rcc.c ****   *         clock source is ready (clock stable after start-up delay or PLL locked).
 807:./Drivers/STM32F1xx_HAL_Driver/Src/stm32f1xx_hal_rcc.c ****   *         If a clock source which is not yet ready is selected, the switch will
 808:./Drivers/STM32F1xx_HAL_Driver/Src/stm32f1xx_hal_rcc.c ****   *         occur when the clock source will be ready.
 809:./Drivers/STM32F1xx_HAL_Driver/Src/stm32f1xx_hal_rcc.c ****   *         You can use @ref HAL_RCC_GetClockConfig() function to know which clock is
 810:./Drivers/STM32F1xx_HAL_Driver/Src/stm32f1xx_hal_rcc.c ****   *         currently used as system clock source.
 811:./Drivers/STM32F1xx_HAL_Driver/Src/stm32f1xx_hal_rcc.c ****   * @retval HAL status
 812:./Drivers/STM32F1xx_HAL_Driver/Src/stm32f1xx_hal_rcc.c ****   */
 813:./Drivers/STM32F1xx_HAL_Driver/Src/stm32f1xx_hal_rcc.c **** HAL_StatusTypeDef HAL_RCC_ClockConfig(RCC_ClkInitTypeDef  *RCC_ClkInitStruct, uint32_t FLatency)
 814:./Drivers/STM32F1xx_HAL_Driver/Src/stm32f1xx_hal_rcc.c **** {
 1083              		.loc 1 814 1
 1084              		.cfi_startproc
 1085              		@ args = 0, pretend = 0, frame = 16
 1086              		@ frame_needed = 1, uses_anonymous_args = 0
 1087 0000 80B5     		push	{r7, lr}
 1088              		.cfi_def_cfa_offset 8
 1089              		.cfi_offset 7, -8
 1090              		.cfi_offset 14, -4
 1091 0002 84B0     		sub	sp, sp, #16
 1092              		.cfi_def_cfa_offset 24
 1093 0004 00AF     		add	r7, sp, #0
 1094              		.cfi_def_cfa_register 7
ARM GAS  C:\Users\ULTIMA~1\AppData\Local\Temp\cc1JA9tE.s 			page 35


 1095 0006 7860     		str	r0, [r7, #4]
 1096 0008 3960     		str	r1, [r7]
 815:./Drivers/STM32F1xx_HAL_Driver/Src/stm32f1xx_hal_rcc.c ****   uint32_t tickstart;
 816:./Drivers/STM32F1xx_HAL_Driver/Src/stm32f1xx_hal_rcc.c **** 
 817:./Drivers/STM32F1xx_HAL_Driver/Src/stm32f1xx_hal_rcc.c ****   /* Check Null pointer */
 818:./Drivers/STM32F1xx_HAL_Driver/Src/stm32f1xx_hal_rcc.c ****   if (RCC_ClkInitStruct == NULL)
 1097              		.loc 1 818 6
 1098 000a 7B68     		ldr	r3, [r7, #4]
 1099 000c 002B     		cmp	r3, #0
 1100 000e 01D1     		bne	.L80
 819:./Drivers/STM32F1xx_HAL_Driver/Src/stm32f1xx_hal_rcc.c ****   {
 820:./Drivers/STM32F1xx_HAL_Driver/Src/stm32f1xx_hal_rcc.c ****     return HAL_ERROR;
 1101              		.loc 1 820 12
 1102 0010 0123     		movs	r3, #1
 1103 0012 D0E0     		b	.L81
 1104              	.L80:
 821:./Drivers/STM32F1xx_HAL_Driver/Src/stm32f1xx_hal_rcc.c ****   }
 822:./Drivers/STM32F1xx_HAL_Driver/Src/stm32f1xx_hal_rcc.c **** 
 823:./Drivers/STM32F1xx_HAL_Driver/Src/stm32f1xx_hal_rcc.c ****   /* Check the parameters */
 824:./Drivers/STM32F1xx_HAL_Driver/Src/stm32f1xx_hal_rcc.c ****   assert_param(IS_RCC_CLOCKTYPE(RCC_ClkInitStruct->ClockType));
 825:./Drivers/STM32F1xx_HAL_Driver/Src/stm32f1xx_hal_rcc.c ****   assert_param(IS_FLASH_LATENCY(FLatency));
 826:./Drivers/STM32F1xx_HAL_Driver/Src/stm32f1xx_hal_rcc.c **** 
 827:./Drivers/STM32F1xx_HAL_Driver/Src/stm32f1xx_hal_rcc.c ****   /* To correctly read data from FLASH memory, the number of wait states (LATENCY)
 828:./Drivers/STM32F1xx_HAL_Driver/Src/stm32f1xx_hal_rcc.c ****   must be correctly programmed according to the frequency of the CPU clock
 829:./Drivers/STM32F1xx_HAL_Driver/Src/stm32f1xx_hal_rcc.c ****     (HCLK) of the device. */
 830:./Drivers/STM32F1xx_HAL_Driver/Src/stm32f1xx_hal_rcc.c **** 
 831:./Drivers/STM32F1xx_HAL_Driver/Src/stm32f1xx_hal_rcc.c **** #if defined(FLASH_ACR_LATENCY)
 832:./Drivers/STM32F1xx_HAL_Driver/Src/stm32f1xx_hal_rcc.c ****   /* Increasing the number of wait states because of higher CPU frequency */
 833:./Drivers/STM32F1xx_HAL_Driver/Src/stm32f1xx_hal_rcc.c ****   if (FLatency > __HAL_FLASH_GET_LATENCY())
 1105              		.loc 1 833 18
 1106 0014 6A4B     		ldr	r3, .L95
 1107 0016 1B68     		ldr	r3, [r3]
 1108 0018 03F00703 		and	r3, r3, #7
 1109              		.loc 1 833 6
 1110 001c 3A68     		ldr	r2, [r7]
 1111 001e 9A42     		cmp	r2, r3
 1112 0020 10D9     		bls	.L82
 834:./Drivers/STM32F1xx_HAL_Driver/Src/stm32f1xx_hal_rcc.c ****   {
 835:./Drivers/STM32F1xx_HAL_Driver/Src/stm32f1xx_hal_rcc.c ****     /* Program the new number of wait states to the LATENCY bits in the FLASH_ACR register */
 836:./Drivers/STM32F1xx_HAL_Driver/Src/stm32f1xx_hal_rcc.c ****     __HAL_FLASH_SET_LATENCY(FLatency);
 1113              		.loc 1 836 5
 1114 0022 674B     		ldr	r3, .L95
 1115 0024 1B68     		ldr	r3, [r3]
 1116 0026 23F00702 		bic	r2, r3, #7
 1117 002a 6549     		ldr	r1, .L95
 1118 002c 3B68     		ldr	r3, [r7]
 1119 002e 1343     		orrs	r3, r3, r2
 1120 0030 0B60     		str	r3, [r1]
 837:./Drivers/STM32F1xx_HAL_Driver/Src/stm32f1xx_hal_rcc.c **** 
 838:./Drivers/STM32F1xx_HAL_Driver/Src/stm32f1xx_hal_rcc.c ****     /* Check that the new number of wait states is taken into account to access the Flash
 839:./Drivers/STM32F1xx_HAL_Driver/Src/stm32f1xx_hal_rcc.c ****     memory by reading the FLASH_ACR register */
 840:./Drivers/STM32F1xx_HAL_Driver/Src/stm32f1xx_hal_rcc.c ****     if (__HAL_FLASH_GET_LATENCY() != FLatency)
 1121              		.loc 1 840 9
 1122 0032 634B     		ldr	r3, .L95
 1123 0034 1B68     		ldr	r3, [r3]
 1124 0036 03F00703 		and	r3, r3, #7
 1125              		.loc 1 840 8
ARM GAS  C:\Users\ULTIMA~1\AppData\Local\Temp\cc1JA9tE.s 			page 36


 1126 003a 3A68     		ldr	r2, [r7]
 1127 003c 9A42     		cmp	r2, r3
 1128 003e 01D0     		beq	.L82
 841:./Drivers/STM32F1xx_HAL_Driver/Src/stm32f1xx_hal_rcc.c ****   {
 842:./Drivers/STM32F1xx_HAL_Driver/Src/stm32f1xx_hal_rcc.c ****     return HAL_ERROR;
 1129              		.loc 1 842 12
 1130 0040 0123     		movs	r3, #1
 1131 0042 B8E0     		b	.L81
 1132              	.L82:
 843:./Drivers/STM32F1xx_HAL_Driver/Src/stm32f1xx_hal_rcc.c ****   }
 844:./Drivers/STM32F1xx_HAL_Driver/Src/stm32f1xx_hal_rcc.c **** }
 845:./Drivers/STM32F1xx_HAL_Driver/Src/stm32f1xx_hal_rcc.c **** 
 846:./Drivers/STM32F1xx_HAL_Driver/Src/stm32f1xx_hal_rcc.c **** #endif /* FLASH_ACR_LATENCY */
 847:./Drivers/STM32F1xx_HAL_Driver/Src/stm32f1xx_hal_rcc.c **** /*-------------------------- HCLK Configuration --------------------------*/
 848:./Drivers/STM32F1xx_HAL_Driver/Src/stm32f1xx_hal_rcc.c **** if (((RCC_ClkInitStruct->ClockType) & RCC_CLOCKTYPE_HCLK) == RCC_CLOCKTYPE_HCLK)
 1133              		.loc 1 848 24
 1134 0044 7B68     		ldr	r3, [r7, #4]
 1135 0046 1B68     		ldr	r3, [r3]
 1136              		.loc 1 848 37
 1137 0048 03F00203 		and	r3, r3, #2
 1138              		.loc 1 848 4
 1139 004c 002B     		cmp	r3, #0
 1140 004e 20D0     		beq	.L83
 849:./Drivers/STM32F1xx_HAL_Driver/Src/stm32f1xx_hal_rcc.c ****   {
 850:./Drivers/STM32F1xx_HAL_Driver/Src/stm32f1xx_hal_rcc.c ****     /* Set the highest APBx dividers in order to ensure that we do not go through
 851:./Drivers/STM32F1xx_HAL_Driver/Src/stm32f1xx_hal_rcc.c ****     a non-spec phase whatever we decrease or increase HCLK. */
 852:./Drivers/STM32F1xx_HAL_Driver/Src/stm32f1xx_hal_rcc.c ****     if (((RCC_ClkInitStruct->ClockType) & RCC_CLOCKTYPE_PCLK1) == RCC_CLOCKTYPE_PCLK1)
 1141              		.loc 1 852 28
 1142 0050 7B68     		ldr	r3, [r7, #4]
 1143 0052 1B68     		ldr	r3, [r3]
 1144              		.loc 1 852 41
 1145 0054 03F00403 		and	r3, r3, #4
 1146              		.loc 1 852 8
 1147 0058 002B     		cmp	r3, #0
 1148 005a 05D0     		beq	.L84
 853:./Drivers/STM32F1xx_HAL_Driver/Src/stm32f1xx_hal_rcc.c ****     {
 854:./Drivers/STM32F1xx_HAL_Driver/Src/stm32f1xx_hal_rcc.c ****       MODIFY_REG(RCC->CFGR, RCC_CFGR_PPRE1, RCC_HCLK_DIV16);
 1149              		.loc 1 854 7
 1150 005c 594B     		ldr	r3, .L95+4
 1151 005e 5B68     		ldr	r3, [r3, #4]
 1152 0060 584A     		ldr	r2, .L95+4
 1153 0062 43F4E063 		orr	r3, r3, #1792
 1154 0066 5360     		str	r3, [r2, #4]
 1155              	.L84:
 855:./Drivers/STM32F1xx_HAL_Driver/Src/stm32f1xx_hal_rcc.c ****     }
 856:./Drivers/STM32F1xx_HAL_Driver/Src/stm32f1xx_hal_rcc.c **** 
 857:./Drivers/STM32F1xx_HAL_Driver/Src/stm32f1xx_hal_rcc.c ****     if (((RCC_ClkInitStruct->ClockType) & RCC_CLOCKTYPE_PCLK2) == RCC_CLOCKTYPE_PCLK2)
 1156              		.loc 1 857 28
 1157 0068 7B68     		ldr	r3, [r7, #4]
 1158 006a 1B68     		ldr	r3, [r3]
 1159              		.loc 1 857 41
 1160 006c 03F00803 		and	r3, r3, #8
 1161              		.loc 1 857 8
 1162 0070 002B     		cmp	r3, #0
 1163 0072 05D0     		beq	.L85
 858:./Drivers/STM32F1xx_HAL_Driver/Src/stm32f1xx_hal_rcc.c ****     {
 859:./Drivers/STM32F1xx_HAL_Driver/Src/stm32f1xx_hal_rcc.c ****       MODIFY_REG(RCC->CFGR, RCC_CFGR_PPRE2, (RCC_HCLK_DIV16 << 3));
ARM GAS  C:\Users\ULTIMA~1\AppData\Local\Temp\cc1JA9tE.s 			page 37


 1164              		.loc 1 859 7
 1165 0074 534B     		ldr	r3, .L95+4
 1166 0076 5B68     		ldr	r3, [r3, #4]
 1167 0078 524A     		ldr	r2, .L95+4
 1168 007a 43F46053 		orr	r3, r3, #14336
 1169 007e 5360     		str	r3, [r2, #4]
 1170              	.L85:
 860:./Drivers/STM32F1xx_HAL_Driver/Src/stm32f1xx_hal_rcc.c ****     }
 861:./Drivers/STM32F1xx_HAL_Driver/Src/stm32f1xx_hal_rcc.c **** 
 862:./Drivers/STM32F1xx_HAL_Driver/Src/stm32f1xx_hal_rcc.c ****     /* Set the new HCLK clock divider */
 863:./Drivers/STM32F1xx_HAL_Driver/Src/stm32f1xx_hal_rcc.c ****     assert_param(IS_RCC_HCLK(RCC_ClkInitStruct->AHBCLKDivider));
 864:./Drivers/STM32F1xx_HAL_Driver/Src/stm32f1xx_hal_rcc.c ****     MODIFY_REG(RCC->CFGR, RCC_CFGR_HPRE, RCC_ClkInitStruct->AHBCLKDivider);
 1171              		.loc 1 864 5
 1172 0080 504B     		ldr	r3, .L95+4
 1173 0082 5B68     		ldr	r3, [r3, #4]
 1174 0084 23F0F002 		bic	r2, r3, #240
 1175 0088 7B68     		ldr	r3, [r7, #4]
 1176 008a 9B68     		ldr	r3, [r3, #8]
 1177 008c 4D49     		ldr	r1, .L95+4
 1178 008e 1343     		orrs	r3, r3, r2
 1179 0090 4B60     		str	r3, [r1, #4]
 1180              	.L83:
 865:./Drivers/STM32F1xx_HAL_Driver/Src/stm32f1xx_hal_rcc.c ****   }
 866:./Drivers/STM32F1xx_HAL_Driver/Src/stm32f1xx_hal_rcc.c **** 
 867:./Drivers/STM32F1xx_HAL_Driver/Src/stm32f1xx_hal_rcc.c ****   /*------------------------- SYSCLK Configuration ---------------------------*/
 868:./Drivers/STM32F1xx_HAL_Driver/Src/stm32f1xx_hal_rcc.c ****   if (((RCC_ClkInitStruct->ClockType) & RCC_CLOCKTYPE_SYSCLK) == RCC_CLOCKTYPE_SYSCLK)
 1181              		.loc 1 868 26
 1182 0092 7B68     		ldr	r3, [r7, #4]
 1183 0094 1B68     		ldr	r3, [r3]
 1184              		.loc 1 868 39
 1185 0096 03F00103 		and	r3, r3, #1
 1186              		.loc 1 868 6
 1187 009a 002B     		cmp	r3, #0
 1188 009c 40D0     		beq	.L86
 869:./Drivers/STM32F1xx_HAL_Driver/Src/stm32f1xx_hal_rcc.c ****   {
 870:./Drivers/STM32F1xx_HAL_Driver/Src/stm32f1xx_hal_rcc.c ****     assert_param(IS_RCC_SYSCLKSOURCE(RCC_ClkInitStruct->SYSCLKSource));
 871:./Drivers/STM32F1xx_HAL_Driver/Src/stm32f1xx_hal_rcc.c **** 
 872:./Drivers/STM32F1xx_HAL_Driver/Src/stm32f1xx_hal_rcc.c ****     /* HSE is selected as System Clock Source */
 873:./Drivers/STM32F1xx_HAL_Driver/Src/stm32f1xx_hal_rcc.c ****     if (RCC_ClkInitStruct->SYSCLKSource == RCC_SYSCLKSOURCE_HSE)
 1189              		.loc 1 873 26
 1190 009e 7B68     		ldr	r3, [r7, #4]
 1191 00a0 5B68     		ldr	r3, [r3, #4]
 1192              		.loc 1 873 8
 1193 00a2 012B     		cmp	r3, #1
 1194 00a4 07D1     		bne	.L87
 874:./Drivers/STM32F1xx_HAL_Driver/Src/stm32f1xx_hal_rcc.c ****     {
 875:./Drivers/STM32F1xx_HAL_Driver/Src/stm32f1xx_hal_rcc.c ****       /* Check the HSE ready flag */
 876:./Drivers/STM32F1xx_HAL_Driver/Src/stm32f1xx_hal_rcc.c ****       if (__HAL_RCC_GET_FLAG(RCC_FLAG_HSERDY) == RESET)
 1195              		.loc 1 876 11
 1196 00a6 474B     		ldr	r3, .L95+4
 1197 00a8 1B68     		ldr	r3, [r3]
 1198 00aa 03F40033 		and	r3, r3, #131072
 1199              		.loc 1 876 10
 1200 00ae 002B     		cmp	r3, #0
 1201 00b0 15D1     		bne	.L88
 877:./Drivers/STM32F1xx_HAL_Driver/Src/stm32f1xx_hal_rcc.c ****       {
 878:./Drivers/STM32F1xx_HAL_Driver/Src/stm32f1xx_hal_rcc.c ****         return HAL_ERROR;
ARM GAS  C:\Users\ULTIMA~1\AppData\Local\Temp\cc1JA9tE.s 			page 38


 1202              		.loc 1 878 16
 1203 00b2 0123     		movs	r3, #1
 1204 00b4 7FE0     		b	.L81
 1205              	.L87:
 879:./Drivers/STM32F1xx_HAL_Driver/Src/stm32f1xx_hal_rcc.c ****       }
 880:./Drivers/STM32F1xx_HAL_Driver/Src/stm32f1xx_hal_rcc.c ****     }
 881:./Drivers/STM32F1xx_HAL_Driver/Src/stm32f1xx_hal_rcc.c ****     /* PLL is selected as System Clock Source */
 882:./Drivers/STM32F1xx_HAL_Driver/Src/stm32f1xx_hal_rcc.c ****     else if (RCC_ClkInitStruct->SYSCLKSource == RCC_SYSCLKSOURCE_PLLCLK)
 1206              		.loc 1 882 31
 1207 00b6 7B68     		ldr	r3, [r7, #4]
 1208 00b8 5B68     		ldr	r3, [r3, #4]
 1209              		.loc 1 882 13
 1210 00ba 022B     		cmp	r3, #2
 1211 00bc 07D1     		bne	.L89
 883:./Drivers/STM32F1xx_HAL_Driver/Src/stm32f1xx_hal_rcc.c ****     {
 884:./Drivers/STM32F1xx_HAL_Driver/Src/stm32f1xx_hal_rcc.c ****       /* Check the PLL ready flag */
 885:./Drivers/STM32F1xx_HAL_Driver/Src/stm32f1xx_hal_rcc.c ****       if (__HAL_RCC_GET_FLAG(RCC_FLAG_PLLRDY) == RESET)
 1212              		.loc 1 885 11
 1213 00be 414B     		ldr	r3, .L95+4
 1214 00c0 1B68     		ldr	r3, [r3]
 1215 00c2 03F00073 		and	r3, r3, #33554432
 1216              		.loc 1 885 10
 1217 00c6 002B     		cmp	r3, #0
 1218 00c8 09D1     		bne	.L88
 886:./Drivers/STM32F1xx_HAL_Driver/Src/stm32f1xx_hal_rcc.c ****       {
 887:./Drivers/STM32F1xx_HAL_Driver/Src/stm32f1xx_hal_rcc.c ****         return HAL_ERROR;
 1219              		.loc 1 887 16
 1220 00ca 0123     		movs	r3, #1
 1221 00cc 73E0     		b	.L81
 1222              	.L89:
 888:./Drivers/STM32F1xx_HAL_Driver/Src/stm32f1xx_hal_rcc.c ****       }
 889:./Drivers/STM32F1xx_HAL_Driver/Src/stm32f1xx_hal_rcc.c ****     }
 890:./Drivers/STM32F1xx_HAL_Driver/Src/stm32f1xx_hal_rcc.c ****     /* HSI is selected as System Clock Source */
 891:./Drivers/STM32F1xx_HAL_Driver/Src/stm32f1xx_hal_rcc.c ****     else
 892:./Drivers/STM32F1xx_HAL_Driver/Src/stm32f1xx_hal_rcc.c ****     {
 893:./Drivers/STM32F1xx_HAL_Driver/Src/stm32f1xx_hal_rcc.c ****       /* Check the HSI ready flag */
 894:./Drivers/STM32F1xx_HAL_Driver/Src/stm32f1xx_hal_rcc.c ****       if (__HAL_RCC_GET_FLAG(RCC_FLAG_HSIRDY) == RESET)
 1223              		.loc 1 894 11
 1224 00ce 3D4B     		ldr	r3, .L95+4
 1225 00d0 1B68     		ldr	r3, [r3]
 1226 00d2 03F00203 		and	r3, r3, #2
 1227              		.loc 1 894 10
 1228 00d6 002B     		cmp	r3, #0
 1229 00d8 01D1     		bne	.L88
 895:./Drivers/STM32F1xx_HAL_Driver/Src/stm32f1xx_hal_rcc.c ****       {
 896:./Drivers/STM32F1xx_HAL_Driver/Src/stm32f1xx_hal_rcc.c ****         return HAL_ERROR;
 1230              		.loc 1 896 16
 1231 00da 0123     		movs	r3, #1
 1232 00dc 6BE0     		b	.L81
 1233              	.L88:
 897:./Drivers/STM32F1xx_HAL_Driver/Src/stm32f1xx_hal_rcc.c ****       }
 898:./Drivers/STM32F1xx_HAL_Driver/Src/stm32f1xx_hal_rcc.c ****     }
 899:./Drivers/STM32F1xx_HAL_Driver/Src/stm32f1xx_hal_rcc.c ****     __HAL_RCC_SYSCLK_CONFIG(RCC_ClkInitStruct->SYSCLKSource);
 1234              		.loc 1 899 5
 1235 00de 394B     		ldr	r3, .L95+4
 1236 00e0 5B68     		ldr	r3, [r3, #4]
 1237 00e2 23F00302 		bic	r2, r3, #3
ARM GAS  C:\Users\ULTIMA~1\AppData\Local\Temp\cc1JA9tE.s 			page 39


 1238 00e6 7B68     		ldr	r3, [r7, #4]
 1239 00e8 5B68     		ldr	r3, [r3, #4]
 1240 00ea 3649     		ldr	r1, .L95+4
 1241 00ec 1343     		orrs	r3, r3, r2
 1242 00ee 4B60     		str	r3, [r1, #4]
 900:./Drivers/STM32F1xx_HAL_Driver/Src/stm32f1xx_hal_rcc.c **** 
 901:./Drivers/STM32F1xx_HAL_Driver/Src/stm32f1xx_hal_rcc.c ****     /* Get Start Tick */
 902:./Drivers/STM32F1xx_HAL_Driver/Src/stm32f1xx_hal_rcc.c ****     tickstart = HAL_GetTick();
 1243              		.loc 1 902 17
 1244 00f0 FFF7FEFF 		bl	HAL_GetTick
 1245 00f4 F860     		str	r0, [r7, #12]
 903:./Drivers/STM32F1xx_HAL_Driver/Src/stm32f1xx_hal_rcc.c **** 
 904:./Drivers/STM32F1xx_HAL_Driver/Src/stm32f1xx_hal_rcc.c ****     while (__HAL_RCC_GET_SYSCLK_SOURCE() != (RCC_ClkInitStruct->SYSCLKSource << RCC_CFGR_SWS_Pos))
 1246              		.loc 1 904 11
 1247 00f6 0AE0     		b	.L90
 1248              	.L91:
 905:./Drivers/STM32F1xx_HAL_Driver/Src/stm32f1xx_hal_rcc.c ****     {
 906:./Drivers/STM32F1xx_HAL_Driver/Src/stm32f1xx_hal_rcc.c ****       if ((HAL_GetTick() - tickstart) > CLOCKSWITCH_TIMEOUT_VALUE)
 1249              		.loc 1 906 12
 1250 00f8 FFF7FEFF 		bl	HAL_GetTick
 1251 00fc 0246     		mov	r2, r0
 1252              		.loc 1 906 26
 1253 00fe FB68     		ldr	r3, [r7, #12]
 1254 0100 D31A     		subs	r3, r2, r3
 1255              		.loc 1 906 10
 1256 0102 41F28832 		movw	r2, #5000
 1257 0106 9342     		cmp	r3, r2
 1258 0108 01D9     		bls	.L90
 907:./Drivers/STM32F1xx_HAL_Driver/Src/stm32f1xx_hal_rcc.c ****       {
 908:./Drivers/STM32F1xx_HAL_Driver/Src/stm32f1xx_hal_rcc.c ****         return HAL_TIMEOUT;
 1259              		.loc 1 908 16
 1260 010a 0323     		movs	r3, #3
 1261 010c 53E0     		b	.L81
 1262              	.L90:
 904:./Drivers/STM32F1xx_HAL_Driver/Src/stm32f1xx_hal_rcc.c ****     {
 1263              		.loc 1 904 12
 1264 010e 2D4B     		ldr	r3, .L95+4
 1265 0110 5B68     		ldr	r3, [r3, #4]
 1266 0112 03F00C02 		and	r2, r3, #12
 904:./Drivers/STM32F1xx_HAL_Driver/Src/stm32f1xx_hal_rcc.c ****     {
 1267              		.loc 1 904 63
 1268 0116 7B68     		ldr	r3, [r7, #4]
 1269 0118 5B68     		ldr	r3, [r3, #4]
 904:./Drivers/STM32F1xx_HAL_Driver/Src/stm32f1xx_hal_rcc.c ****     {
 1270              		.loc 1 904 78
 1271 011a 9B00     		lsls	r3, r3, #2
 904:./Drivers/STM32F1xx_HAL_Driver/Src/stm32f1xx_hal_rcc.c ****     {
 1272              		.loc 1 904 11
 1273 011c 9A42     		cmp	r2, r3
 1274 011e EBD1     		bne	.L91
 1275              	.L86:
 909:./Drivers/STM32F1xx_HAL_Driver/Src/stm32f1xx_hal_rcc.c ****       }
 910:./Drivers/STM32F1xx_HAL_Driver/Src/stm32f1xx_hal_rcc.c ****     }
 911:./Drivers/STM32F1xx_HAL_Driver/Src/stm32f1xx_hal_rcc.c ****   }
 912:./Drivers/STM32F1xx_HAL_Driver/Src/stm32f1xx_hal_rcc.c **** 
 913:./Drivers/STM32F1xx_HAL_Driver/Src/stm32f1xx_hal_rcc.c **** #if defined(FLASH_ACR_LATENCY)
 914:./Drivers/STM32F1xx_HAL_Driver/Src/stm32f1xx_hal_rcc.c ****   /* Decreasing the number of wait states because of lower CPU frequency */
ARM GAS  C:\Users\ULTIMA~1\AppData\Local\Temp\cc1JA9tE.s 			page 40


 915:./Drivers/STM32F1xx_HAL_Driver/Src/stm32f1xx_hal_rcc.c ****   if (FLatency < __HAL_FLASH_GET_LATENCY())
 1276              		.loc 1 915 18
 1277 0120 274B     		ldr	r3, .L95
 1278 0122 1B68     		ldr	r3, [r3]
 1279 0124 03F00703 		and	r3, r3, #7
 1280              		.loc 1 915 6
 1281 0128 3A68     		ldr	r2, [r7]
 1282 012a 9A42     		cmp	r2, r3
 1283 012c 10D2     		bcs	.L92
 916:./Drivers/STM32F1xx_HAL_Driver/Src/stm32f1xx_hal_rcc.c ****   {
 917:./Drivers/STM32F1xx_HAL_Driver/Src/stm32f1xx_hal_rcc.c ****     /* Program the new number of wait states to the LATENCY bits in the FLASH_ACR register */
 918:./Drivers/STM32F1xx_HAL_Driver/Src/stm32f1xx_hal_rcc.c ****     __HAL_FLASH_SET_LATENCY(FLatency);
 1284              		.loc 1 918 5
 1285 012e 244B     		ldr	r3, .L95
 1286 0130 1B68     		ldr	r3, [r3]
 1287 0132 23F00702 		bic	r2, r3, #7
 1288 0136 2249     		ldr	r1, .L95
 1289 0138 3B68     		ldr	r3, [r7]
 1290 013a 1343     		orrs	r3, r3, r2
 1291 013c 0B60     		str	r3, [r1]
 919:./Drivers/STM32F1xx_HAL_Driver/Src/stm32f1xx_hal_rcc.c **** 
 920:./Drivers/STM32F1xx_HAL_Driver/Src/stm32f1xx_hal_rcc.c ****     /* Check that the new number of wait states is taken into account to access the Flash
 921:./Drivers/STM32F1xx_HAL_Driver/Src/stm32f1xx_hal_rcc.c ****     memory by reading the FLASH_ACR register */
 922:./Drivers/STM32F1xx_HAL_Driver/Src/stm32f1xx_hal_rcc.c ****     if (__HAL_FLASH_GET_LATENCY() != FLatency)
 1292              		.loc 1 922 9
 1293 013e 204B     		ldr	r3, .L95
 1294 0140 1B68     		ldr	r3, [r3]
 1295 0142 03F00703 		and	r3, r3, #7
 1296              		.loc 1 922 8
 1297 0146 3A68     		ldr	r2, [r7]
 1298 0148 9A42     		cmp	r2, r3
 1299 014a 01D0     		beq	.L92
 923:./Drivers/STM32F1xx_HAL_Driver/Src/stm32f1xx_hal_rcc.c ****   {
 924:./Drivers/STM32F1xx_HAL_Driver/Src/stm32f1xx_hal_rcc.c ****     return HAL_ERROR;
 1300              		.loc 1 924 12
 1301 014c 0123     		movs	r3, #1
 1302 014e 32E0     		b	.L81
 1303              	.L92:
 925:./Drivers/STM32F1xx_HAL_Driver/Src/stm32f1xx_hal_rcc.c ****   }
 926:./Drivers/STM32F1xx_HAL_Driver/Src/stm32f1xx_hal_rcc.c **** }
 927:./Drivers/STM32F1xx_HAL_Driver/Src/stm32f1xx_hal_rcc.c **** #endif /* FLASH_ACR_LATENCY */
 928:./Drivers/STM32F1xx_HAL_Driver/Src/stm32f1xx_hal_rcc.c **** 
 929:./Drivers/STM32F1xx_HAL_Driver/Src/stm32f1xx_hal_rcc.c **** /*-------------------------- PCLK1 Configuration ---------------------------*/
 930:./Drivers/STM32F1xx_HAL_Driver/Src/stm32f1xx_hal_rcc.c **** if (((RCC_ClkInitStruct->ClockType) & RCC_CLOCKTYPE_PCLK1) == RCC_CLOCKTYPE_PCLK1)
 1304              		.loc 1 930 24
 1305 0150 7B68     		ldr	r3, [r7, #4]
 1306 0152 1B68     		ldr	r3, [r3]
 1307              		.loc 1 930 37
 1308 0154 03F00403 		and	r3, r3, #4
 1309              		.loc 1 930 4
 1310 0158 002B     		cmp	r3, #0
 1311 015a 08D0     		beq	.L93
 931:./Drivers/STM32F1xx_HAL_Driver/Src/stm32f1xx_hal_rcc.c ****   {
 932:./Drivers/STM32F1xx_HAL_Driver/Src/stm32f1xx_hal_rcc.c ****     assert_param(IS_RCC_PCLK(RCC_ClkInitStruct->APB1CLKDivider));
 933:./Drivers/STM32F1xx_HAL_Driver/Src/stm32f1xx_hal_rcc.c ****     MODIFY_REG(RCC->CFGR, RCC_CFGR_PPRE1, RCC_ClkInitStruct->APB1CLKDivider);
 1312              		.loc 1 933 5
 1313 015c 194B     		ldr	r3, .L95+4
ARM GAS  C:\Users\ULTIMA~1\AppData\Local\Temp\cc1JA9tE.s 			page 41


 1314 015e 5B68     		ldr	r3, [r3, #4]
 1315 0160 23F4E062 		bic	r2, r3, #1792
 1316 0164 7B68     		ldr	r3, [r7, #4]
 1317 0166 DB68     		ldr	r3, [r3, #12]
 1318 0168 1649     		ldr	r1, .L95+4
 1319 016a 1343     		orrs	r3, r3, r2
 1320 016c 4B60     		str	r3, [r1, #4]
 1321              	.L93:
 934:./Drivers/STM32F1xx_HAL_Driver/Src/stm32f1xx_hal_rcc.c ****   }
 935:./Drivers/STM32F1xx_HAL_Driver/Src/stm32f1xx_hal_rcc.c **** 
 936:./Drivers/STM32F1xx_HAL_Driver/Src/stm32f1xx_hal_rcc.c ****   /*-------------------------- PCLK2 Configuration ---------------------------*/
 937:./Drivers/STM32F1xx_HAL_Driver/Src/stm32f1xx_hal_rcc.c ****   if (((RCC_ClkInitStruct->ClockType) & RCC_CLOCKTYPE_PCLK2) == RCC_CLOCKTYPE_PCLK2)
 1322              		.loc 1 937 26
 1323 016e 7B68     		ldr	r3, [r7, #4]
 1324 0170 1B68     		ldr	r3, [r3]
 1325              		.loc 1 937 39
 1326 0172 03F00803 		and	r3, r3, #8
 1327              		.loc 1 937 6
 1328 0176 002B     		cmp	r3, #0
 1329 0178 09D0     		beq	.L94
 938:./Drivers/STM32F1xx_HAL_Driver/Src/stm32f1xx_hal_rcc.c ****   {
 939:./Drivers/STM32F1xx_HAL_Driver/Src/stm32f1xx_hal_rcc.c ****     assert_param(IS_RCC_PCLK(RCC_ClkInitStruct->APB2CLKDivider));
 940:./Drivers/STM32F1xx_HAL_Driver/Src/stm32f1xx_hal_rcc.c ****     MODIFY_REG(RCC->CFGR, RCC_CFGR_PPRE2, ((RCC_ClkInitStruct->APB2CLKDivider) << 3));
 1330              		.loc 1 940 5
 1331 017a 124B     		ldr	r3, .L95+4
 1332 017c 5B68     		ldr	r3, [r3, #4]
 1333 017e 23F46052 		bic	r2, r3, #14336
 1334 0182 7B68     		ldr	r3, [r7, #4]
 1335 0184 1B69     		ldr	r3, [r3, #16]
 1336 0186 DB00     		lsls	r3, r3, #3
 1337 0188 0E49     		ldr	r1, .L95+4
 1338 018a 1343     		orrs	r3, r3, r2
 1339 018c 4B60     		str	r3, [r1, #4]
 1340              	.L94:
 941:./Drivers/STM32F1xx_HAL_Driver/Src/stm32f1xx_hal_rcc.c ****   }
 942:./Drivers/STM32F1xx_HAL_Driver/Src/stm32f1xx_hal_rcc.c **** 
 943:./Drivers/STM32F1xx_HAL_Driver/Src/stm32f1xx_hal_rcc.c ****   /* Update the SystemCoreClock global variable */
 944:./Drivers/STM32F1xx_HAL_Driver/Src/stm32f1xx_hal_rcc.c ****   SystemCoreClock = HAL_RCC_GetSysClockFreq() >> AHBPrescTable[(RCC->CFGR & RCC_CFGR_HPRE) >> RCC_C
 1341              		.loc 1 944 21
 1342 018e FFF7FEFF 		bl	HAL_RCC_GetSysClockFreq
 1343 0192 0246     		mov	r2, r0
 1344              		.loc 1 944 68
 1345 0194 0B4B     		ldr	r3, .L95+4
 1346 0196 5B68     		ldr	r3, [r3, #4]
 1347              		.loc 1 944 92
 1348 0198 1B09     		lsrs	r3, r3, #4
 1349 019a 03F00F03 		and	r3, r3, #15
 1350              		.loc 1 944 63
 1351 019e 0A49     		ldr	r1, .L95+8
 1352 01a0 CB5C     		ldrb	r3, [r1, r3]	@ zero_extendqisi2
 1353              		.loc 1 944 47
 1354 01a2 22FA03F3 		lsr	r3, r2, r3
 1355              		.loc 1 944 19
 1356 01a6 094A     		ldr	r2, .L95+12
 1357 01a8 1360     		str	r3, [r2]
 945:./Drivers/STM32F1xx_HAL_Driver/Src/stm32f1xx_hal_rcc.c **** 
 946:./Drivers/STM32F1xx_HAL_Driver/Src/stm32f1xx_hal_rcc.c ****   /* Configure the source of time base considering new system clocks settings*/
ARM GAS  C:\Users\ULTIMA~1\AppData\Local\Temp\cc1JA9tE.s 			page 42


 947:./Drivers/STM32F1xx_HAL_Driver/Src/stm32f1xx_hal_rcc.c ****   HAL_InitTick(uwTickPrio);
 1358              		.loc 1 947 3
 1359 01aa 094B     		ldr	r3, .L95+16
 1360 01ac 1B68     		ldr	r3, [r3]
 1361 01ae 1846     		mov	r0, r3
 1362 01b0 FFF7FEFF 		bl	HAL_InitTick
 948:./Drivers/STM32F1xx_HAL_Driver/Src/stm32f1xx_hal_rcc.c **** 
 949:./Drivers/STM32F1xx_HAL_Driver/Src/stm32f1xx_hal_rcc.c ****   return HAL_OK;
 1363              		.loc 1 949 10
 1364 01b4 0023     		movs	r3, #0
 1365              	.L81:
 950:./Drivers/STM32F1xx_HAL_Driver/Src/stm32f1xx_hal_rcc.c **** }
 1366              		.loc 1 950 1
 1367 01b6 1846     		mov	r0, r3
 1368 01b8 1037     		adds	r7, r7, #16
 1369              		.cfi_def_cfa_offset 8
 1370 01ba BD46     		mov	sp, r7
 1371              		.cfi_def_cfa_register 13
 1372              		@ sp needed
 1373 01bc 80BD     		pop	{r7, pc}
 1374              	.L96:
 1375 01be 00BF     		.align	2
 1376              	.L95:
 1377 01c0 00200240 		.word	1073881088
 1378 01c4 00100240 		.word	1073876992
 1379 01c8 00000000 		.word	AHBPrescTable
 1380 01cc 00000000 		.word	SystemCoreClock
 1381 01d0 00000000 		.word	uwTickPrio
 1382              		.cfi_endproc
 1383              	.LFE67:
 1385              		.section	.text.HAL_RCC_MCOConfig,"ax",%progbits
 1386              		.align	1
 1387              		.global	HAL_RCC_MCOConfig
 1388              		.syntax unified
 1389              		.thumb
 1390              		.thumb_func
 1392              	HAL_RCC_MCOConfig:
 1393              	.LFB68:
 951:./Drivers/STM32F1xx_HAL_Driver/Src/stm32f1xx_hal_rcc.c **** 
 952:./Drivers/STM32F1xx_HAL_Driver/Src/stm32f1xx_hal_rcc.c **** /**
 953:./Drivers/STM32F1xx_HAL_Driver/Src/stm32f1xx_hal_rcc.c ****   * @}
 954:./Drivers/STM32F1xx_HAL_Driver/Src/stm32f1xx_hal_rcc.c ****   */
 955:./Drivers/STM32F1xx_HAL_Driver/Src/stm32f1xx_hal_rcc.c **** 
 956:./Drivers/STM32F1xx_HAL_Driver/Src/stm32f1xx_hal_rcc.c **** /** @defgroup RCC_Exported_Functions_Group2 Peripheral Control functions
 957:./Drivers/STM32F1xx_HAL_Driver/Src/stm32f1xx_hal_rcc.c ****   *  @brief   RCC clocks control functions
 958:./Drivers/STM32F1xx_HAL_Driver/Src/stm32f1xx_hal_rcc.c ****   *
 959:./Drivers/STM32F1xx_HAL_Driver/Src/stm32f1xx_hal_rcc.c ****   @verbatim
 960:./Drivers/STM32F1xx_HAL_Driver/Src/stm32f1xx_hal_rcc.c ****   ===============================================================================
 961:./Drivers/STM32F1xx_HAL_Driver/Src/stm32f1xx_hal_rcc.c ****                   ##### Peripheral Control functions #####
 962:./Drivers/STM32F1xx_HAL_Driver/Src/stm32f1xx_hal_rcc.c ****   ===============================================================================
 963:./Drivers/STM32F1xx_HAL_Driver/Src/stm32f1xx_hal_rcc.c ****     [..]
 964:./Drivers/STM32F1xx_HAL_Driver/Src/stm32f1xx_hal_rcc.c ****     This subsection provides a set of functions allowing to control the RCC Clocks
 965:./Drivers/STM32F1xx_HAL_Driver/Src/stm32f1xx_hal_rcc.c ****     frequencies.
 966:./Drivers/STM32F1xx_HAL_Driver/Src/stm32f1xx_hal_rcc.c **** 
 967:./Drivers/STM32F1xx_HAL_Driver/Src/stm32f1xx_hal_rcc.c ****   @endverbatim
 968:./Drivers/STM32F1xx_HAL_Driver/Src/stm32f1xx_hal_rcc.c ****   * @{
 969:./Drivers/STM32F1xx_HAL_Driver/Src/stm32f1xx_hal_rcc.c ****   */
ARM GAS  C:\Users\ULTIMA~1\AppData\Local\Temp\cc1JA9tE.s 			page 43


 970:./Drivers/STM32F1xx_HAL_Driver/Src/stm32f1xx_hal_rcc.c **** 
 971:./Drivers/STM32F1xx_HAL_Driver/Src/stm32f1xx_hal_rcc.c **** /**
 972:./Drivers/STM32F1xx_HAL_Driver/Src/stm32f1xx_hal_rcc.c ****   * @brief  Selects the clock source to output on MCO pin.
 973:./Drivers/STM32F1xx_HAL_Driver/Src/stm32f1xx_hal_rcc.c ****   * @note   MCO pin should be configured in alternate function mode.
 974:./Drivers/STM32F1xx_HAL_Driver/Src/stm32f1xx_hal_rcc.c ****   * @param  RCC_MCOx specifies the output direction for the clock source.
 975:./Drivers/STM32F1xx_HAL_Driver/Src/stm32f1xx_hal_rcc.c ****   *          This parameter can be one of the following values:
 976:./Drivers/STM32F1xx_HAL_Driver/Src/stm32f1xx_hal_rcc.c ****   *            @arg @ref RCC_MCO1 Clock source to output on MCO1 pin(PA8).
 977:./Drivers/STM32F1xx_HAL_Driver/Src/stm32f1xx_hal_rcc.c ****   * @param  RCC_MCOSource specifies the clock source to output.
 978:./Drivers/STM32F1xx_HAL_Driver/Src/stm32f1xx_hal_rcc.c ****   *          This parameter can be one of the following values:
 979:./Drivers/STM32F1xx_HAL_Driver/Src/stm32f1xx_hal_rcc.c ****   *            @arg @ref RCC_MCO1SOURCE_NOCLOCK     No clock selected as MCO clock
 980:./Drivers/STM32F1xx_HAL_Driver/Src/stm32f1xx_hal_rcc.c ****   *            @arg @ref RCC_MCO1SOURCE_SYSCLK      System clock selected as MCO clock
 981:./Drivers/STM32F1xx_HAL_Driver/Src/stm32f1xx_hal_rcc.c ****   *            @arg @ref RCC_MCO1SOURCE_HSI         HSI selected as MCO clock
 982:./Drivers/STM32F1xx_HAL_Driver/Src/stm32f1xx_hal_rcc.c ****   *            @arg @ref RCC_MCO1SOURCE_HSE         HSE selected as MCO clock
 983:./Drivers/STM32F1xx_HAL_Driver/Src/stm32f1xx_hal_rcc.c ****   @if STM32F105xC
 984:./Drivers/STM32F1xx_HAL_Driver/Src/stm32f1xx_hal_rcc.c ****   *            @arg @ref RCC_MCO1SOURCE_PLLCLK       PLL clock divided by 2 selected as MCO source
 985:./Drivers/STM32F1xx_HAL_Driver/Src/stm32f1xx_hal_rcc.c ****   *            @arg @ref RCC_MCO1SOURCE_PLL2CLK      PLL2 clock selected as MCO source
 986:./Drivers/STM32F1xx_HAL_Driver/Src/stm32f1xx_hal_rcc.c ****   *            @arg @ref RCC_MCO1SOURCE_PLL3CLK_DIV2 PLL3 clock divided by 2 selected as MCO source
 987:./Drivers/STM32F1xx_HAL_Driver/Src/stm32f1xx_hal_rcc.c ****   *            @arg @ref RCC_MCO1SOURCE_EXT_HSE      XT1 external 3-25 MHz oscillator clock selecte
 988:./Drivers/STM32F1xx_HAL_Driver/Src/stm32f1xx_hal_rcc.c ****   *            @arg @ref RCC_MCO1SOURCE_PLL3CLK      PLL3 clock selected as MCO source
 989:./Drivers/STM32F1xx_HAL_Driver/Src/stm32f1xx_hal_rcc.c ****   @endif
 990:./Drivers/STM32F1xx_HAL_Driver/Src/stm32f1xx_hal_rcc.c ****   @if STM32F107xC
 991:./Drivers/STM32F1xx_HAL_Driver/Src/stm32f1xx_hal_rcc.c ****   *            @arg @ref RCC_MCO1SOURCE_PLLCLK       PLL clock divided by 2 selected as MCO source
 992:./Drivers/STM32F1xx_HAL_Driver/Src/stm32f1xx_hal_rcc.c ****   *            @arg @ref RCC_MCO1SOURCE_PLL2CLK      PLL2 clock selected as MCO source
 993:./Drivers/STM32F1xx_HAL_Driver/Src/stm32f1xx_hal_rcc.c ****   *            @arg @ref RCC_MCO1SOURCE_PLL3CLK_DIV2 PLL3 clock divided by 2 selected as MCO source
 994:./Drivers/STM32F1xx_HAL_Driver/Src/stm32f1xx_hal_rcc.c ****   *            @arg @ref RCC_MCO1SOURCE_EXT_HSE XT1  external 3-25 MHz oscillator clock selected as
 995:./Drivers/STM32F1xx_HAL_Driver/Src/stm32f1xx_hal_rcc.c ****   *            @arg @ref RCC_MCO1SOURCE_PLL3CLK      PLL3 clock selected as MCO source
 996:./Drivers/STM32F1xx_HAL_Driver/Src/stm32f1xx_hal_rcc.c ****   @endif
 997:./Drivers/STM32F1xx_HAL_Driver/Src/stm32f1xx_hal_rcc.c ****   * @param  RCC_MCODiv specifies the MCO DIV.
 998:./Drivers/STM32F1xx_HAL_Driver/Src/stm32f1xx_hal_rcc.c ****   *          This parameter can be one of the following values:
 999:./Drivers/STM32F1xx_HAL_Driver/Src/stm32f1xx_hal_rcc.c ****   *            @arg @ref RCC_MCODIV_1 no division applied to MCO clock
1000:./Drivers/STM32F1xx_HAL_Driver/Src/stm32f1xx_hal_rcc.c ****   * @retval None
1001:./Drivers/STM32F1xx_HAL_Driver/Src/stm32f1xx_hal_rcc.c ****   */
1002:./Drivers/STM32F1xx_HAL_Driver/Src/stm32f1xx_hal_rcc.c **** void HAL_RCC_MCOConfig(uint32_t RCC_MCOx, uint32_t RCC_MCOSource, uint32_t RCC_MCODiv)
1003:./Drivers/STM32F1xx_HAL_Driver/Src/stm32f1xx_hal_rcc.c **** {
 1394              		.loc 1 1003 1
 1395              		.cfi_startproc
 1396              		@ args = 0, pretend = 0, frame = 40
 1397              		@ frame_needed = 1, uses_anonymous_args = 0
 1398 0000 80B5     		push	{r7, lr}
 1399              		.cfi_def_cfa_offset 8
 1400              		.cfi_offset 7, -8
 1401              		.cfi_offset 14, -4
 1402 0002 8AB0     		sub	sp, sp, #40
 1403              		.cfi_def_cfa_offset 48
 1404 0004 00AF     		add	r7, sp, #0
 1405              		.cfi_def_cfa_register 7
 1406 0006 F860     		str	r0, [r7, #12]
 1407 0008 B960     		str	r1, [r7, #8]
 1408 000a 7A60     		str	r2, [r7, #4]
1004:./Drivers/STM32F1xx_HAL_Driver/Src/stm32f1xx_hal_rcc.c ****   GPIO_InitTypeDef gpio = {0U};
 1409              		.loc 1 1004 20
 1410 000c 07F11803 		add	r3, r7, #24
 1411 0010 0022     		movs	r2, #0
 1412 0012 1A60     		str	r2, [r3]
 1413 0014 5A60     		str	r2, [r3, #4]
 1414 0016 9A60     		str	r2, [r3, #8]
 1415 0018 DA60     		str	r2, [r3, #12]
ARM GAS  C:\Users\ULTIMA~1\AppData\Local\Temp\cc1JA9tE.s 			page 44


1005:./Drivers/STM32F1xx_HAL_Driver/Src/stm32f1xx_hal_rcc.c **** 
1006:./Drivers/STM32F1xx_HAL_Driver/Src/stm32f1xx_hal_rcc.c ****   /* Check the parameters */
1007:./Drivers/STM32F1xx_HAL_Driver/Src/stm32f1xx_hal_rcc.c ****   assert_param(IS_RCC_MCO(RCC_MCOx));
1008:./Drivers/STM32F1xx_HAL_Driver/Src/stm32f1xx_hal_rcc.c ****   assert_param(IS_RCC_MCODIV(RCC_MCODiv));
1009:./Drivers/STM32F1xx_HAL_Driver/Src/stm32f1xx_hal_rcc.c ****   assert_param(IS_RCC_MCO1SOURCE(RCC_MCOSource));
1010:./Drivers/STM32F1xx_HAL_Driver/Src/stm32f1xx_hal_rcc.c **** 
1011:./Drivers/STM32F1xx_HAL_Driver/Src/stm32f1xx_hal_rcc.c ****   /* Prevent unused argument(s) compilation warning */
1012:./Drivers/STM32F1xx_HAL_Driver/Src/stm32f1xx_hal_rcc.c ****   UNUSED(RCC_MCOx);
1013:./Drivers/STM32F1xx_HAL_Driver/Src/stm32f1xx_hal_rcc.c ****   UNUSED(RCC_MCODiv);
1014:./Drivers/STM32F1xx_HAL_Driver/Src/stm32f1xx_hal_rcc.c **** 
1015:./Drivers/STM32F1xx_HAL_Driver/Src/stm32f1xx_hal_rcc.c ****   /* Configure the MCO1 pin in alternate function mode */
1016:./Drivers/STM32F1xx_HAL_Driver/Src/stm32f1xx_hal_rcc.c ****   gpio.Mode      = GPIO_MODE_AF_PP;
 1416              		.loc 1 1016 18
 1417 001a 0223     		movs	r3, #2
 1418 001c FB61     		str	r3, [r7, #28]
1017:./Drivers/STM32F1xx_HAL_Driver/Src/stm32f1xx_hal_rcc.c ****   gpio.Speed     = GPIO_SPEED_FREQ_HIGH;
 1419              		.loc 1 1017 18
 1420 001e 0323     		movs	r3, #3
 1421 0020 7B62     		str	r3, [r7, #36]
1018:./Drivers/STM32F1xx_HAL_Driver/Src/stm32f1xx_hal_rcc.c ****   gpio.Pull      = GPIO_NOPULL;
 1422              		.loc 1 1018 18
 1423 0022 0023     		movs	r3, #0
 1424 0024 3B62     		str	r3, [r7, #32]
1019:./Drivers/STM32F1xx_HAL_Driver/Src/stm32f1xx_hal_rcc.c ****   gpio.Pin       = MCO1_PIN;
 1425              		.loc 1 1019 18
 1426 0026 4FF48073 		mov	r3, #256
 1427 002a BB61     		str	r3, [r7, #24]
 1428              	.LBB4:
1020:./Drivers/STM32F1xx_HAL_Driver/Src/stm32f1xx_hal_rcc.c **** 
1021:./Drivers/STM32F1xx_HAL_Driver/Src/stm32f1xx_hal_rcc.c ****   /* MCO1 Clock Enable */
1022:./Drivers/STM32F1xx_HAL_Driver/Src/stm32f1xx_hal_rcc.c ****   MCO1_CLK_ENABLE();
 1429              		.loc 1 1022 3
 1430 002c 0E4B     		ldr	r3, .L98
 1431 002e 9B69     		ldr	r3, [r3, #24]
 1432 0030 0D4A     		ldr	r2, .L98
 1433 0032 43F00403 		orr	r3, r3, #4
 1434 0036 9361     		str	r3, [r2, #24]
 1435 0038 0B4B     		ldr	r3, .L98
 1436 003a 9B69     		ldr	r3, [r3, #24]
 1437 003c 03F00403 		and	r3, r3, #4
 1438 0040 7B61     		str	r3, [r7, #20]
 1439 0042 7B69     		ldr	r3, [r7, #20]
 1440              	.LBE4:
1023:./Drivers/STM32F1xx_HAL_Driver/Src/stm32f1xx_hal_rcc.c **** 
1024:./Drivers/STM32F1xx_HAL_Driver/Src/stm32f1xx_hal_rcc.c ****   HAL_GPIO_Init(MCO1_GPIO_PORT, &gpio);
 1441              		.loc 1 1024 3
 1442 0044 07F11803 		add	r3, r7, #24
 1443 0048 1946     		mov	r1, r3
 1444 004a 0848     		ldr	r0, .L98+4
 1445 004c FFF7FEFF 		bl	HAL_GPIO_Init
1025:./Drivers/STM32F1xx_HAL_Driver/Src/stm32f1xx_hal_rcc.c **** 
1026:./Drivers/STM32F1xx_HAL_Driver/Src/stm32f1xx_hal_rcc.c ****   /* Configure the MCO clock source */
1027:./Drivers/STM32F1xx_HAL_Driver/Src/stm32f1xx_hal_rcc.c ****   __HAL_RCC_MCO1_CONFIG(RCC_MCOSource, RCC_MCODiv);
 1446              		.loc 1 1027 3
 1447 0050 054B     		ldr	r3, .L98
 1448 0052 5B68     		ldr	r3, [r3, #4]
 1449 0054 23F0E062 		bic	r2, r3, #117440512
ARM GAS  C:\Users\ULTIMA~1\AppData\Local\Temp\cc1JA9tE.s 			page 45


 1450 0058 0349     		ldr	r1, .L98
 1451 005a BB68     		ldr	r3, [r7, #8]
 1452 005c 1343     		orrs	r3, r3, r2
 1453 005e 4B60     		str	r3, [r1, #4]
1028:./Drivers/STM32F1xx_HAL_Driver/Src/stm32f1xx_hal_rcc.c **** }
 1454              		.loc 1 1028 1
 1455 0060 00BF     		nop
 1456 0062 2837     		adds	r7, r7, #40
 1457              		.cfi_def_cfa_offset 8
 1458 0064 BD46     		mov	sp, r7
 1459              		.cfi_def_cfa_register 13
 1460              		@ sp needed
 1461 0066 80BD     		pop	{r7, pc}
 1462              	.L99:
 1463              		.align	2
 1464              	.L98:
 1465 0068 00100240 		.word	1073876992
 1466 006c 00080140 		.word	1073809408
 1467              		.cfi_endproc
 1468              	.LFE68:
 1470              		.section	.text.HAL_RCC_EnableCSS,"ax",%progbits
 1471              		.align	1
 1472              		.global	HAL_RCC_EnableCSS
 1473              		.syntax unified
 1474              		.thumb
 1475              		.thumb_func
 1477              	HAL_RCC_EnableCSS:
 1478              	.LFB69:
1029:./Drivers/STM32F1xx_HAL_Driver/Src/stm32f1xx_hal_rcc.c **** 
1030:./Drivers/STM32F1xx_HAL_Driver/Src/stm32f1xx_hal_rcc.c **** /**
1031:./Drivers/STM32F1xx_HAL_Driver/Src/stm32f1xx_hal_rcc.c ****   * @brief  Enables the Clock Security System.
1032:./Drivers/STM32F1xx_HAL_Driver/Src/stm32f1xx_hal_rcc.c ****   * @note   If a failure is detected on the HSE oscillator clock, this oscillator
1033:./Drivers/STM32F1xx_HAL_Driver/Src/stm32f1xx_hal_rcc.c ****   *         is automatically disabled and an interrupt is generated to inform the
1034:./Drivers/STM32F1xx_HAL_Driver/Src/stm32f1xx_hal_rcc.c ****   *         software about the failure (Clock Security System Interrupt, CSSI),
1035:./Drivers/STM32F1xx_HAL_Driver/Src/stm32f1xx_hal_rcc.c ****   *         allowing the MCU to perform rescue operations. The CSSI is linked to
1036:./Drivers/STM32F1xx_HAL_Driver/Src/stm32f1xx_hal_rcc.c ****   *         the Cortex-M3 NMI (Non-Maskable Interrupt) exception vector.
1037:./Drivers/STM32F1xx_HAL_Driver/Src/stm32f1xx_hal_rcc.c ****   * @retval None
1038:./Drivers/STM32F1xx_HAL_Driver/Src/stm32f1xx_hal_rcc.c ****   */
1039:./Drivers/STM32F1xx_HAL_Driver/Src/stm32f1xx_hal_rcc.c **** void HAL_RCC_EnableCSS(void)
1040:./Drivers/STM32F1xx_HAL_Driver/Src/stm32f1xx_hal_rcc.c **** {
 1479              		.loc 1 1040 1
 1480              		.cfi_startproc
 1481              		@ args = 0, pretend = 0, frame = 0
 1482              		@ frame_needed = 1, uses_anonymous_args = 0
 1483              		@ link register save eliminated.
 1484 0000 80B4     		push	{r7}
 1485              		.cfi_def_cfa_offset 4
 1486              		.cfi_offset 7, -4
 1487 0002 00AF     		add	r7, sp, #0
 1488              		.cfi_def_cfa_register 7
1041:./Drivers/STM32F1xx_HAL_Driver/Src/stm32f1xx_hal_rcc.c ****   *(__IO uint32_t *) RCC_CR_CSSON_BB = (uint32_t)ENABLE;
 1489              		.loc 1 1041 3
 1490 0004 034B     		ldr	r3, .L101
 1491              		.loc 1 1041 38
 1492 0006 0122     		movs	r2, #1
 1493 0008 1A60     		str	r2, [r3]
1042:./Drivers/STM32F1xx_HAL_Driver/Src/stm32f1xx_hal_rcc.c **** }
ARM GAS  C:\Users\ULTIMA~1\AppData\Local\Temp\cc1JA9tE.s 			page 46


 1494              		.loc 1 1042 1
 1495 000a 00BF     		nop
 1496 000c BD46     		mov	sp, r7
 1497              		.cfi_def_cfa_register 13
 1498              		@ sp needed
 1499 000e 80BC     		pop	{r7}
 1500              		.cfi_restore 7
 1501              		.cfi_def_cfa_offset 0
 1502 0010 7047     		bx	lr
 1503              	.L102:
 1504 0012 00BF     		.align	2
 1505              	.L101:
 1506 0014 4C004242 		.word	1111621708
 1507              		.cfi_endproc
 1508              	.LFE69:
 1510              		.section	.text.HAL_RCC_DisableCSS,"ax",%progbits
 1511              		.align	1
 1512              		.global	HAL_RCC_DisableCSS
 1513              		.syntax unified
 1514              		.thumb
 1515              		.thumb_func
 1517              	HAL_RCC_DisableCSS:
 1518              	.LFB70:
1043:./Drivers/STM32F1xx_HAL_Driver/Src/stm32f1xx_hal_rcc.c **** 
1044:./Drivers/STM32F1xx_HAL_Driver/Src/stm32f1xx_hal_rcc.c **** /**
1045:./Drivers/STM32F1xx_HAL_Driver/Src/stm32f1xx_hal_rcc.c ****   * @brief  Disables the Clock Security System.
1046:./Drivers/STM32F1xx_HAL_Driver/Src/stm32f1xx_hal_rcc.c ****   * @retval None
1047:./Drivers/STM32F1xx_HAL_Driver/Src/stm32f1xx_hal_rcc.c ****   */
1048:./Drivers/STM32F1xx_HAL_Driver/Src/stm32f1xx_hal_rcc.c **** void HAL_RCC_DisableCSS(void)
1049:./Drivers/STM32F1xx_HAL_Driver/Src/stm32f1xx_hal_rcc.c **** {
 1519              		.loc 1 1049 1
 1520              		.cfi_startproc
 1521              		@ args = 0, pretend = 0, frame = 0
 1522              		@ frame_needed = 1, uses_anonymous_args = 0
 1523              		@ link register save eliminated.
 1524 0000 80B4     		push	{r7}
 1525              		.cfi_def_cfa_offset 4
 1526              		.cfi_offset 7, -4
 1527 0002 00AF     		add	r7, sp, #0
 1528              		.cfi_def_cfa_register 7
1050:./Drivers/STM32F1xx_HAL_Driver/Src/stm32f1xx_hal_rcc.c ****   *(__IO uint32_t *) RCC_CR_CSSON_BB = (uint32_t)DISABLE;
 1529              		.loc 1 1050 3
 1530 0004 034B     		ldr	r3, .L104
 1531              		.loc 1 1050 38
 1532 0006 0022     		movs	r2, #0
 1533 0008 1A60     		str	r2, [r3]
1051:./Drivers/STM32F1xx_HAL_Driver/Src/stm32f1xx_hal_rcc.c **** }
 1534              		.loc 1 1051 1
 1535 000a 00BF     		nop
 1536 000c BD46     		mov	sp, r7
 1537              		.cfi_def_cfa_register 13
 1538              		@ sp needed
 1539 000e 80BC     		pop	{r7}
 1540              		.cfi_restore 7
 1541              		.cfi_def_cfa_offset 0
 1542 0010 7047     		bx	lr
 1543              	.L105:
ARM GAS  C:\Users\ULTIMA~1\AppData\Local\Temp\cc1JA9tE.s 			page 47


 1544 0012 00BF     		.align	2
 1545              	.L104:
 1546 0014 4C004242 		.word	1111621708
 1547              		.cfi_endproc
 1548              	.LFE70:
 1550              		.section	.rodata
 1551              		.align	2
 1552              	.LC0:
 1553 0000 02030405 		.ascii	"\002\003\004\005\006\007\010\011\012\013\014\015\016"
 1553      06070809 
 1553      0A0B0C0D 
 1553      0E
 1554 000d 0F1010   		.ascii	"\017\020\020"
 1555              		.section	.text.HAL_RCC_GetSysClockFreq,"ax",%progbits
 1556              		.align	1
 1557              		.global	HAL_RCC_GetSysClockFreq
 1558              		.syntax unified
 1559              		.thumb
 1560              		.thumb_func
 1562              	HAL_RCC_GetSysClockFreq:
 1563              	.LFB71:
1052:./Drivers/STM32F1xx_HAL_Driver/Src/stm32f1xx_hal_rcc.c **** 
1053:./Drivers/STM32F1xx_HAL_Driver/Src/stm32f1xx_hal_rcc.c **** /**
1054:./Drivers/STM32F1xx_HAL_Driver/Src/stm32f1xx_hal_rcc.c ****   * @brief  Returns the SYSCLK frequency
1055:./Drivers/STM32F1xx_HAL_Driver/Src/stm32f1xx_hal_rcc.c ****   * @note   The system frequency computed by this function is not the real
1056:./Drivers/STM32F1xx_HAL_Driver/Src/stm32f1xx_hal_rcc.c ****   *         frequency in the chip. It is calculated based on the predefined
1057:./Drivers/STM32F1xx_HAL_Driver/Src/stm32f1xx_hal_rcc.c ****   *         constant and the selected clock source:
1058:./Drivers/STM32F1xx_HAL_Driver/Src/stm32f1xx_hal_rcc.c ****   * @note     If SYSCLK source is HSI, function returns values based on HSI_VALUE(*)
1059:./Drivers/STM32F1xx_HAL_Driver/Src/stm32f1xx_hal_rcc.c ****   * @note     If SYSCLK source is HSE, function returns a value based on HSE_VALUE
1060:./Drivers/STM32F1xx_HAL_Driver/Src/stm32f1xx_hal_rcc.c ****   *           divided by PREDIV factor(**)
1061:./Drivers/STM32F1xx_HAL_Driver/Src/stm32f1xx_hal_rcc.c ****   * @note     If SYSCLK source is PLL, function returns a value based on HSE_VALUE
1062:./Drivers/STM32F1xx_HAL_Driver/Src/stm32f1xx_hal_rcc.c ****   *           divided by PREDIV factor(**) or HSI_VALUE(*) multiplied by the PLL factor.
1063:./Drivers/STM32F1xx_HAL_Driver/Src/stm32f1xx_hal_rcc.c ****   * @note     (*) HSI_VALUE is a constant defined in stm32f1xx_hal_conf.h file (default value
1064:./Drivers/STM32F1xx_HAL_Driver/Src/stm32f1xx_hal_rcc.c ****   *               8 MHz) but the real value may vary depending on the variations
1065:./Drivers/STM32F1xx_HAL_Driver/Src/stm32f1xx_hal_rcc.c ****   *               in voltage and temperature.
1066:./Drivers/STM32F1xx_HAL_Driver/Src/stm32f1xx_hal_rcc.c ****   * @note     (**) HSE_VALUE is a constant defined in stm32f1xx_hal_conf.h file (default value
1067:./Drivers/STM32F1xx_HAL_Driver/Src/stm32f1xx_hal_rcc.c ****   *                8 MHz), user has to ensure that HSE_VALUE is same as the real
1068:./Drivers/STM32F1xx_HAL_Driver/Src/stm32f1xx_hal_rcc.c ****   *                frequency of the crystal used. Otherwise, this function may
1069:./Drivers/STM32F1xx_HAL_Driver/Src/stm32f1xx_hal_rcc.c ****   *                have wrong result.
1070:./Drivers/STM32F1xx_HAL_Driver/Src/stm32f1xx_hal_rcc.c ****   *
1071:./Drivers/STM32F1xx_HAL_Driver/Src/stm32f1xx_hal_rcc.c ****   * @note   The result of this function could be not correct when using fractional
1072:./Drivers/STM32F1xx_HAL_Driver/Src/stm32f1xx_hal_rcc.c ****   *         value for HSE crystal.
1073:./Drivers/STM32F1xx_HAL_Driver/Src/stm32f1xx_hal_rcc.c ****   *
1074:./Drivers/STM32F1xx_HAL_Driver/Src/stm32f1xx_hal_rcc.c ****   * @note   This function can be used by the user application to compute the
1075:./Drivers/STM32F1xx_HAL_Driver/Src/stm32f1xx_hal_rcc.c ****   *         baud-rate for the communication peripherals or configure other parameters.
1076:./Drivers/STM32F1xx_HAL_Driver/Src/stm32f1xx_hal_rcc.c ****   *
1077:./Drivers/STM32F1xx_HAL_Driver/Src/stm32f1xx_hal_rcc.c ****   * @note   Each time SYSCLK changes, this function must be called to update the
1078:./Drivers/STM32F1xx_HAL_Driver/Src/stm32f1xx_hal_rcc.c ****   *         right SYSCLK value. Otherwise, any configuration based on this function will be incorre
1079:./Drivers/STM32F1xx_HAL_Driver/Src/stm32f1xx_hal_rcc.c ****   *
1080:./Drivers/STM32F1xx_HAL_Driver/Src/stm32f1xx_hal_rcc.c ****   * @retval SYSCLK frequency
1081:./Drivers/STM32F1xx_HAL_Driver/Src/stm32f1xx_hal_rcc.c ****   */
1082:./Drivers/STM32F1xx_HAL_Driver/Src/stm32f1xx_hal_rcc.c **** uint32_t HAL_RCC_GetSysClockFreq(void)
1083:./Drivers/STM32F1xx_HAL_Driver/Src/stm32f1xx_hal_rcc.c **** {
 1564              		.loc 1 1083 1
 1565              		.cfi_startproc
 1566              		@ args = 0, pretend = 0, frame = 40
 1567              		@ frame_needed = 1, uses_anonymous_args = 0
ARM GAS  C:\Users\ULTIMA~1\AppData\Local\Temp\cc1JA9tE.s 			page 48


 1568              		@ link register save eliminated.
 1569 0000 90B4     		push	{r4, r7}
 1570              		.cfi_def_cfa_offset 8
 1571              		.cfi_offset 4, -8
 1572              		.cfi_offset 7, -4
 1573 0002 8AB0     		sub	sp, sp, #40
 1574              		.cfi_def_cfa_offset 48
 1575 0004 00AF     		add	r7, sp, #0
 1576              		.cfi_def_cfa_register 7
1084:./Drivers/STM32F1xx_HAL_Driver/Src/stm32f1xx_hal_rcc.c **** #if defined(RCC_CFGR2_PREDIV1SRC)
1085:./Drivers/STM32F1xx_HAL_Driver/Src/stm32f1xx_hal_rcc.c ****   const uint8_t aPLLMULFactorTable[14] = {0, 0, 4, 5, 6, 7, 8, 9, 0, 0, 0, 0, 0, 13};
1086:./Drivers/STM32F1xx_HAL_Driver/Src/stm32f1xx_hal_rcc.c ****   const uint8_t aPredivFactorTable[16] = {1, 2, 3, 4, 5, 6, 7, 8, 9, 10, 11, 12, 13, 14, 15, 16};
1087:./Drivers/STM32F1xx_HAL_Driver/Src/stm32f1xx_hal_rcc.c **** #else
1088:./Drivers/STM32F1xx_HAL_Driver/Src/stm32f1xx_hal_rcc.c ****   const uint8_t aPLLMULFactorTable[16] = {2, 3, 4, 5, 6, 7, 8, 9, 10, 11, 12, 13, 14, 15, 16, 16};
 1577              		.loc 1 1088 17
 1578 0006 294B     		ldr	r3, .L115
 1579 0008 3C1D     		adds	r4, r7, #4
 1580 000a 0FCB     		ldm	r3, {r0, r1, r2, r3}
 1581 000c 84E80F00 		stm	r4, {r0, r1, r2, r3}
1089:./Drivers/STM32F1xx_HAL_Driver/Src/stm32f1xx_hal_rcc.c **** #if defined(RCC_CFGR2_PREDIV1)
1090:./Drivers/STM32F1xx_HAL_Driver/Src/stm32f1xx_hal_rcc.c ****   const uint8_t aPredivFactorTable[16] = {1, 2, 3, 4, 5, 6, 7, 8, 9, 10, 11, 12, 13, 14, 15, 16};
1091:./Drivers/STM32F1xx_HAL_Driver/Src/stm32f1xx_hal_rcc.c **** #else
1092:./Drivers/STM32F1xx_HAL_Driver/Src/stm32f1xx_hal_rcc.c ****   const uint8_t aPredivFactorTable[2] = {1, 2};
 1582              		.loc 1 1092 17
 1583 0010 40F20123 		movw	r3, #513
 1584 0014 3B80     		strh	r3, [r7]	@ movhi
1093:./Drivers/STM32F1xx_HAL_Driver/Src/stm32f1xx_hal_rcc.c **** #endif /*RCC_CFGR2_PREDIV1*/
1094:./Drivers/STM32F1xx_HAL_Driver/Src/stm32f1xx_hal_rcc.c **** 
1095:./Drivers/STM32F1xx_HAL_Driver/Src/stm32f1xx_hal_rcc.c **** #endif
1096:./Drivers/STM32F1xx_HAL_Driver/Src/stm32f1xx_hal_rcc.c ****   uint32_t tmpreg = 0U, prediv = 0U, pllclk = 0U, pllmul = 0U;
 1585              		.loc 1 1096 12
 1586 0016 0023     		movs	r3, #0
 1587 0018 FB61     		str	r3, [r7, #28]
 1588              		.loc 1 1096 25
 1589 001a 0023     		movs	r3, #0
 1590 001c BB61     		str	r3, [r7, #24]
 1591              		.loc 1 1096 38
 1592 001e 0023     		movs	r3, #0
 1593 0020 7B62     		str	r3, [r7, #36]
 1594              		.loc 1 1096 51
 1595 0022 0023     		movs	r3, #0
 1596 0024 7B61     		str	r3, [r7, #20]
1097:./Drivers/STM32F1xx_HAL_Driver/Src/stm32f1xx_hal_rcc.c ****   uint32_t sysclockfreq = 0U;
 1597              		.loc 1 1097 12
 1598 0026 0023     		movs	r3, #0
 1599 0028 3B62     		str	r3, [r7, #32]
1098:./Drivers/STM32F1xx_HAL_Driver/Src/stm32f1xx_hal_rcc.c **** #if defined(RCC_CFGR2_PREDIV1SRC)
1099:./Drivers/STM32F1xx_HAL_Driver/Src/stm32f1xx_hal_rcc.c ****   uint32_t prediv2 = 0U, pll2mul = 0U;
1100:./Drivers/STM32F1xx_HAL_Driver/Src/stm32f1xx_hal_rcc.c **** #endif /*RCC_CFGR2_PREDIV1SRC*/
1101:./Drivers/STM32F1xx_HAL_Driver/Src/stm32f1xx_hal_rcc.c **** 
1102:./Drivers/STM32F1xx_HAL_Driver/Src/stm32f1xx_hal_rcc.c ****   tmpreg = RCC->CFGR;
 1600              		.loc 1 1102 15
 1601 002a 214B     		ldr	r3, .L115+4
 1602              		.loc 1 1102 10
 1603 002c 5B68     		ldr	r3, [r3, #4]
 1604 002e FB61     		str	r3, [r7, #28]
1103:./Drivers/STM32F1xx_HAL_Driver/Src/stm32f1xx_hal_rcc.c **** 
ARM GAS  C:\Users\ULTIMA~1\AppData\Local\Temp\cc1JA9tE.s 			page 49


1104:./Drivers/STM32F1xx_HAL_Driver/Src/stm32f1xx_hal_rcc.c ****   /* Get SYSCLK source -------------------------------------------------------*/
1105:./Drivers/STM32F1xx_HAL_Driver/Src/stm32f1xx_hal_rcc.c ****   switch (tmpreg & RCC_CFGR_SWS)
 1605              		.loc 1 1105 18
 1606 0030 FB69     		ldr	r3, [r7, #28]
 1607 0032 03F00C03 		and	r3, r3, #12
 1608              		.loc 1 1105 3
 1609 0036 042B     		cmp	r3, #4
 1610 0038 02D0     		beq	.L107
 1611 003a 082B     		cmp	r3, #8
 1612 003c 03D0     		beq	.L108
 1613 003e 2BE0     		b	.L114
 1614              	.L107:
1106:./Drivers/STM32F1xx_HAL_Driver/Src/stm32f1xx_hal_rcc.c ****   {
1107:./Drivers/STM32F1xx_HAL_Driver/Src/stm32f1xx_hal_rcc.c ****     case RCC_SYSCLKSOURCE_STATUS_HSE:  /* HSE used as system clock */
1108:./Drivers/STM32F1xx_HAL_Driver/Src/stm32f1xx_hal_rcc.c ****     {
1109:./Drivers/STM32F1xx_HAL_Driver/Src/stm32f1xx_hal_rcc.c ****       sysclockfreq = HSE_VALUE;
 1615              		.loc 1 1109 20
 1616 0040 1C4B     		ldr	r3, .L115+8
 1617 0042 3B62     		str	r3, [r7, #32]
1110:./Drivers/STM32F1xx_HAL_Driver/Src/stm32f1xx_hal_rcc.c ****       break;
 1618              		.loc 1 1110 7
 1619 0044 2BE0     		b	.L110
 1620              	.L108:
1111:./Drivers/STM32F1xx_HAL_Driver/Src/stm32f1xx_hal_rcc.c ****     }
1112:./Drivers/STM32F1xx_HAL_Driver/Src/stm32f1xx_hal_rcc.c ****     case RCC_SYSCLKSOURCE_STATUS_PLLCLK:  /* PLL used as system clock */
1113:./Drivers/STM32F1xx_HAL_Driver/Src/stm32f1xx_hal_rcc.c ****     {
1114:./Drivers/STM32F1xx_HAL_Driver/Src/stm32f1xx_hal_rcc.c ****       pllmul = aPLLMULFactorTable[(uint32_t)(tmpreg & RCC_CFGR_PLLMULL) >> RCC_CFGR_PLLMULL_Pos];
 1621              		.loc 1 1114 73
 1622 0046 FB69     		ldr	r3, [r7, #28]
 1623 0048 9B0C     		lsrs	r3, r3, #18
 1624 004a 03F00F03 		and	r3, r3, #15
 1625              		.loc 1 1114 34
 1626 004e 2833     		adds	r3, r3, #40
 1627 0050 3B44     		add	r3, r3, r7
 1628 0052 13F8243C 		ldrb	r3, [r3, #-36]	@ zero_extendqisi2
 1629              		.loc 1 1114 14
 1630 0056 7B61     		str	r3, [r7, #20]
1115:./Drivers/STM32F1xx_HAL_Driver/Src/stm32f1xx_hal_rcc.c ****       if ((tmpreg & RCC_CFGR_PLLSRC) != RCC_PLLSOURCE_HSI_DIV2)
 1631              		.loc 1 1115 19
 1632 0058 FB69     		ldr	r3, [r7, #28]
 1633 005a 03F48033 		and	r3, r3, #65536
 1634              		.loc 1 1115 10
 1635 005e 002B     		cmp	r3, #0
 1636 0060 12D0     		beq	.L111
1116:./Drivers/STM32F1xx_HAL_Driver/Src/stm32f1xx_hal_rcc.c ****       {
1117:./Drivers/STM32F1xx_HAL_Driver/Src/stm32f1xx_hal_rcc.c **** #if defined(RCC_CFGR2_PREDIV1)
1118:./Drivers/STM32F1xx_HAL_Driver/Src/stm32f1xx_hal_rcc.c ****         prediv = aPredivFactorTable[(uint32_t)(RCC->CFGR2 & RCC_CFGR2_PREDIV1) >> RCC_CFGR2_PREDIV1
1119:./Drivers/STM32F1xx_HAL_Driver/Src/stm32f1xx_hal_rcc.c **** #else
1120:./Drivers/STM32F1xx_HAL_Driver/Src/stm32f1xx_hal_rcc.c ****         prediv = aPredivFactorTable[(uint32_t)(RCC->CFGR & RCC_CFGR_PLLXTPRE) >> RCC_CFGR_PLLXTPRE_
 1637              		.loc 1 1120 51
 1638 0062 134B     		ldr	r3, .L115+4
 1639 0064 5B68     		ldr	r3, [r3, #4]
 1640              		.loc 1 1120 79
 1641 0066 5B0C     		lsrs	r3, r3, #17
 1642 0068 03F00103 		and	r3, r3, #1
 1643              		.loc 1 1120 36
 1644 006c 2833     		adds	r3, r3, #40
ARM GAS  C:\Users\ULTIMA~1\AppData\Local\Temp\cc1JA9tE.s 			page 50


 1645 006e 3B44     		add	r3, r3, r7
 1646 0070 13F8283C 		ldrb	r3, [r3, #-40]	@ zero_extendqisi2
 1647              		.loc 1 1120 16
 1648 0074 BB61     		str	r3, [r7, #24]
1121:./Drivers/STM32F1xx_HAL_Driver/Src/stm32f1xx_hal_rcc.c **** #endif /*RCC_CFGR2_PREDIV1*/
1122:./Drivers/STM32F1xx_HAL_Driver/Src/stm32f1xx_hal_rcc.c **** #if defined(RCC_CFGR2_PREDIV1SRC)
1123:./Drivers/STM32F1xx_HAL_Driver/Src/stm32f1xx_hal_rcc.c **** 
1124:./Drivers/STM32F1xx_HAL_Driver/Src/stm32f1xx_hal_rcc.c ****         if (HAL_IS_BIT_SET(RCC->CFGR2, RCC_CFGR2_PREDIV1SRC))
1125:./Drivers/STM32F1xx_HAL_Driver/Src/stm32f1xx_hal_rcc.c ****         {
1126:./Drivers/STM32F1xx_HAL_Driver/Src/stm32f1xx_hal_rcc.c ****           /* PLL2 selected as Prediv1 source */
1127:./Drivers/STM32F1xx_HAL_Driver/Src/stm32f1xx_hal_rcc.c ****           /* PLLCLK = PLL2CLK / PREDIV1 * PLLMUL with PLL2CLK = HSE/PREDIV2 * PLL2MUL */
1128:./Drivers/STM32F1xx_HAL_Driver/Src/stm32f1xx_hal_rcc.c ****           prediv2 = ((RCC->CFGR2 & RCC_CFGR2_PREDIV2) >> RCC_CFGR2_PREDIV2_Pos) + 1;
1129:./Drivers/STM32F1xx_HAL_Driver/Src/stm32f1xx_hal_rcc.c ****           pll2mul = ((RCC->CFGR2 & RCC_CFGR2_PLL2MUL) >> RCC_CFGR2_PLL2MUL_Pos) + 2;
1130:./Drivers/STM32F1xx_HAL_Driver/Src/stm32f1xx_hal_rcc.c ****           pllclk = (uint32_t)(((uint64_t)HSE_VALUE * (uint64_t)pll2mul * (uint64_t)pllmul) / ((uint
1131:./Drivers/STM32F1xx_HAL_Driver/Src/stm32f1xx_hal_rcc.c ****         }
1132:./Drivers/STM32F1xx_HAL_Driver/Src/stm32f1xx_hal_rcc.c ****         else
1133:./Drivers/STM32F1xx_HAL_Driver/Src/stm32f1xx_hal_rcc.c ****         {
1134:./Drivers/STM32F1xx_HAL_Driver/Src/stm32f1xx_hal_rcc.c ****           /* HSE used as PLL clock source : PLLCLK = HSE/PREDIV1 * PLLMUL */
1135:./Drivers/STM32F1xx_HAL_Driver/Src/stm32f1xx_hal_rcc.c ****           pllclk = (uint32_t)((HSE_VALUE * pllmul) / prediv);
1136:./Drivers/STM32F1xx_HAL_Driver/Src/stm32f1xx_hal_rcc.c ****         }
1137:./Drivers/STM32F1xx_HAL_Driver/Src/stm32f1xx_hal_rcc.c **** 
1138:./Drivers/STM32F1xx_HAL_Driver/Src/stm32f1xx_hal_rcc.c ****         /* If PLLMUL was set to 13 means that it was to cover the case PLLMUL 6.5 (avoid using floa
1139:./Drivers/STM32F1xx_HAL_Driver/Src/stm32f1xx_hal_rcc.c ****         /* In this case need to divide pllclk by 2 */
1140:./Drivers/STM32F1xx_HAL_Driver/Src/stm32f1xx_hal_rcc.c ****         if (pllmul == aPLLMULFactorTable[(uint32_t)(RCC_CFGR_PLLMULL6_5) >> RCC_CFGR_PLLMULL_Pos])
1141:./Drivers/STM32F1xx_HAL_Driver/Src/stm32f1xx_hal_rcc.c ****         {
1142:./Drivers/STM32F1xx_HAL_Driver/Src/stm32f1xx_hal_rcc.c ****           pllclk = pllclk / 2;
1143:./Drivers/STM32F1xx_HAL_Driver/Src/stm32f1xx_hal_rcc.c ****         }
1144:./Drivers/STM32F1xx_HAL_Driver/Src/stm32f1xx_hal_rcc.c **** #else
1145:./Drivers/STM32F1xx_HAL_Driver/Src/stm32f1xx_hal_rcc.c ****         /* HSE used as PLL clock source : PLLCLK = HSE/PREDIV1 * PLLMUL */
1146:./Drivers/STM32F1xx_HAL_Driver/Src/stm32f1xx_hal_rcc.c ****         pllclk = (uint32_t)((HSE_VALUE  * pllmul) / prediv);
 1649              		.loc 1 1146 41
 1650 0076 7B69     		ldr	r3, [r7, #20]
 1651 0078 0E4A     		ldr	r2, .L115+8
 1652 007a 03FB02F2 		mul	r2, r3, r2
 1653              		.loc 1 1146 16
 1654 007e BB69     		ldr	r3, [r7, #24]
 1655 0080 B2FBF3F3 		udiv	r3, r2, r3
 1656 0084 7B62     		str	r3, [r7, #36]
 1657 0086 04E0     		b	.L112
 1658              	.L111:
1147:./Drivers/STM32F1xx_HAL_Driver/Src/stm32f1xx_hal_rcc.c **** #endif /*RCC_CFGR2_PREDIV1SRC*/
1148:./Drivers/STM32F1xx_HAL_Driver/Src/stm32f1xx_hal_rcc.c ****       }
1149:./Drivers/STM32F1xx_HAL_Driver/Src/stm32f1xx_hal_rcc.c ****       else
1150:./Drivers/STM32F1xx_HAL_Driver/Src/stm32f1xx_hal_rcc.c ****       {
1151:./Drivers/STM32F1xx_HAL_Driver/Src/stm32f1xx_hal_rcc.c ****         /* HSI used as PLL clock source : PLLCLK = HSI/2 * PLLMUL */
1152:./Drivers/STM32F1xx_HAL_Driver/Src/stm32f1xx_hal_rcc.c ****         pllclk = (uint32_t)((HSI_VALUE >> 1) * pllmul);
 1659              		.loc 1 1152 16
 1660 0088 7B69     		ldr	r3, [r7, #20]
 1661 008a 0B4A     		ldr	r2, .L115+12
 1662 008c 02FB03F3 		mul	r3, r2, r3
 1663 0090 7B62     		str	r3, [r7, #36]
 1664              	.L112:
1153:./Drivers/STM32F1xx_HAL_Driver/Src/stm32f1xx_hal_rcc.c ****       }
1154:./Drivers/STM32F1xx_HAL_Driver/Src/stm32f1xx_hal_rcc.c ****       sysclockfreq = pllclk;
 1665              		.loc 1 1154 20
 1666 0092 7B6A     		ldr	r3, [r7, #36]
 1667 0094 3B62     		str	r3, [r7, #32]
ARM GAS  C:\Users\ULTIMA~1\AppData\Local\Temp\cc1JA9tE.s 			page 51


1155:./Drivers/STM32F1xx_HAL_Driver/Src/stm32f1xx_hal_rcc.c ****       break;
 1668              		.loc 1 1155 7
 1669 0096 02E0     		b	.L110
 1670              	.L114:
1156:./Drivers/STM32F1xx_HAL_Driver/Src/stm32f1xx_hal_rcc.c ****     }
1157:./Drivers/STM32F1xx_HAL_Driver/Src/stm32f1xx_hal_rcc.c ****     case RCC_SYSCLKSOURCE_STATUS_HSI:  /* HSI used as system clock source */
1158:./Drivers/STM32F1xx_HAL_Driver/Src/stm32f1xx_hal_rcc.c ****     default: /* HSI used as system clock */
1159:./Drivers/STM32F1xx_HAL_Driver/Src/stm32f1xx_hal_rcc.c ****     {
1160:./Drivers/STM32F1xx_HAL_Driver/Src/stm32f1xx_hal_rcc.c ****       sysclockfreq = HSI_VALUE;
 1671              		.loc 1 1160 20
 1672 0098 064B     		ldr	r3, .L115+8
 1673 009a 3B62     		str	r3, [r7, #32]
1161:./Drivers/STM32F1xx_HAL_Driver/Src/stm32f1xx_hal_rcc.c ****       break;
 1674              		.loc 1 1161 7
 1675 009c 00BF     		nop
 1676              	.L110:
1162:./Drivers/STM32F1xx_HAL_Driver/Src/stm32f1xx_hal_rcc.c ****     }
1163:./Drivers/STM32F1xx_HAL_Driver/Src/stm32f1xx_hal_rcc.c ****   }
1164:./Drivers/STM32F1xx_HAL_Driver/Src/stm32f1xx_hal_rcc.c ****   return sysclockfreq;
 1677              		.loc 1 1164 10
 1678 009e 3B6A     		ldr	r3, [r7, #32]
1165:./Drivers/STM32F1xx_HAL_Driver/Src/stm32f1xx_hal_rcc.c **** }
 1679              		.loc 1 1165 1
 1680 00a0 1846     		mov	r0, r3
 1681 00a2 2837     		adds	r7, r7, #40
 1682              		.cfi_def_cfa_offset 8
 1683 00a4 BD46     		mov	sp, r7
 1684              		.cfi_def_cfa_register 13
 1685              		@ sp needed
 1686 00a6 90BC     		pop	{r4, r7}
 1687              		.cfi_restore 7
 1688              		.cfi_restore 4
 1689              		.cfi_def_cfa_offset 0
 1690 00a8 7047     		bx	lr
 1691              	.L116:
 1692 00aa 00BF     		.align	2
 1693              	.L115:
 1694 00ac 00000000 		.word	.LC0
 1695 00b0 00100240 		.word	1073876992
 1696 00b4 00127A00 		.word	8000000
 1697 00b8 00093D00 		.word	4000000
 1698              		.cfi_endproc
 1699              	.LFE71:
 1701              		.section	.text.HAL_RCC_GetHCLKFreq,"ax",%progbits
 1702              		.align	1
 1703              		.global	HAL_RCC_GetHCLKFreq
 1704              		.syntax unified
 1705              		.thumb
 1706              		.thumb_func
 1708              	HAL_RCC_GetHCLKFreq:
 1709              	.LFB72:
1166:./Drivers/STM32F1xx_HAL_Driver/Src/stm32f1xx_hal_rcc.c **** 
1167:./Drivers/STM32F1xx_HAL_Driver/Src/stm32f1xx_hal_rcc.c **** /**
1168:./Drivers/STM32F1xx_HAL_Driver/Src/stm32f1xx_hal_rcc.c ****   * @brief  Returns the HCLK frequency
1169:./Drivers/STM32F1xx_HAL_Driver/Src/stm32f1xx_hal_rcc.c ****   * @note   Each time HCLK changes, this function must be called to update the
1170:./Drivers/STM32F1xx_HAL_Driver/Src/stm32f1xx_hal_rcc.c ****   *         right HCLK value. Otherwise, any configuration based on this function will be incorrect
1171:./Drivers/STM32F1xx_HAL_Driver/Src/stm32f1xx_hal_rcc.c ****   *
ARM GAS  C:\Users\ULTIMA~1\AppData\Local\Temp\cc1JA9tE.s 			page 52


1172:./Drivers/STM32F1xx_HAL_Driver/Src/stm32f1xx_hal_rcc.c ****   * @note   The SystemCoreClock CMSIS variable is used to store System Clock Frequency
1173:./Drivers/STM32F1xx_HAL_Driver/Src/stm32f1xx_hal_rcc.c ****   *         and updated within this function
1174:./Drivers/STM32F1xx_HAL_Driver/Src/stm32f1xx_hal_rcc.c ****   * @retval HCLK frequency
1175:./Drivers/STM32F1xx_HAL_Driver/Src/stm32f1xx_hal_rcc.c ****   */
1176:./Drivers/STM32F1xx_HAL_Driver/Src/stm32f1xx_hal_rcc.c **** uint32_t HAL_RCC_GetHCLKFreq(void)
1177:./Drivers/STM32F1xx_HAL_Driver/Src/stm32f1xx_hal_rcc.c **** {
 1710              		.loc 1 1177 1
 1711              		.cfi_startproc
 1712              		@ args = 0, pretend = 0, frame = 0
 1713              		@ frame_needed = 1, uses_anonymous_args = 0
 1714              		@ link register save eliminated.
 1715 0000 80B4     		push	{r7}
 1716              		.cfi_def_cfa_offset 4
 1717              		.cfi_offset 7, -4
 1718 0002 00AF     		add	r7, sp, #0
 1719              		.cfi_def_cfa_register 7
1178:./Drivers/STM32F1xx_HAL_Driver/Src/stm32f1xx_hal_rcc.c ****   return SystemCoreClock;
 1720              		.loc 1 1178 10
 1721 0004 024B     		ldr	r3, .L119
 1722 0006 1B68     		ldr	r3, [r3]
1179:./Drivers/STM32F1xx_HAL_Driver/Src/stm32f1xx_hal_rcc.c **** }
 1723              		.loc 1 1179 1
 1724 0008 1846     		mov	r0, r3
 1725 000a BD46     		mov	sp, r7
 1726              		.cfi_def_cfa_register 13
 1727              		@ sp needed
 1728 000c 80BC     		pop	{r7}
 1729              		.cfi_restore 7
 1730              		.cfi_def_cfa_offset 0
 1731 000e 7047     		bx	lr
 1732              	.L120:
 1733              		.align	2
 1734              	.L119:
 1735 0010 00000000 		.word	SystemCoreClock
 1736              		.cfi_endproc
 1737              	.LFE72:
 1739              		.section	.text.HAL_RCC_GetPCLK1Freq,"ax",%progbits
 1740              		.align	1
 1741              		.global	HAL_RCC_GetPCLK1Freq
 1742              		.syntax unified
 1743              		.thumb
 1744              		.thumb_func
 1746              	HAL_RCC_GetPCLK1Freq:
 1747              	.LFB73:
1180:./Drivers/STM32F1xx_HAL_Driver/Src/stm32f1xx_hal_rcc.c **** 
1181:./Drivers/STM32F1xx_HAL_Driver/Src/stm32f1xx_hal_rcc.c **** /**
1182:./Drivers/STM32F1xx_HAL_Driver/Src/stm32f1xx_hal_rcc.c ****   * @brief  Returns the PCLK1 frequency
1183:./Drivers/STM32F1xx_HAL_Driver/Src/stm32f1xx_hal_rcc.c ****   * @note   Each time PCLK1 changes, this function must be called to update the
1184:./Drivers/STM32F1xx_HAL_Driver/Src/stm32f1xx_hal_rcc.c ****   *         right PCLK1 value. Otherwise, any configuration based on this function will be incorrec
1185:./Drivers/STM32F1xx_HAL_Driver/Src/stm32f1xx_hal_rcc.c ****   * @retval PCLK1 frequency
1186:./Drivers/STM32F1xx_HAL_Driver/Src/stm32f1xx_hal_rcc.c ****   */
1187:./Drivers/STM32F1xx_HAL_Driver/Src/stm32f1xx_hal_rcc.c **** uint32_t HAL_RCC_GetPCLK1Freq(void)
1188:./Drivers/STM32F1xx_HAL_Driver/Src/stm32f1xx_hal_rcc.c **** {
 1748              		.loc 1 1188 1
 1749              		.cfi_startproc
 1750              		@ args = 0, pretend = 0, frame = 0
 1751              		@ frame_needed = 1, uses_anonymous_args = 0
ARM GAS  C:\Users\ULTIMA~1\AppData\Local\Temp\cc1JA9tE.s 			page 53


 1752 0000 80B5     		push	{r7, lr}
 1753              		.cfi_def_cfa_offset 8
 1754              		.cfi_offset 7, -8
 1755              		.cfi_offset 14, -4
 1756 0002 00AF     		add	r7, sp, #0
 1757              		.cfi_def_cfa_register 7
1189:./Drivers/STM32F1xx_HAL_Driver/Src/stm32f1xx_hal_rcc.c ****   /* Get HCLK source and Compute PCLK1 frequency ---------------------------*/
1190:./Drivers/STM32F1xx_HAL_Driver/Src/stm32f1xx_hal_rcc.c ****   return (HAL_RCC_GetHCLKFreq() >> APBPrescTable[(RCC->CFGR & RCC_CFGR_PPRE1) >> RCC_CFGR_PPRE1_Pos
 1758              		.loc 1 1190 11
 1759 0004 FFF7FEFF 		bl	HAL_RCC_GetHCLKFreq
 1760 0008 0246     		mov	r2, r0
 1761              		.loc 1 1190 54
 1762 000a 054B     		ldr	r3, .L123
 1763 000c 5B68     		ldr	r3, [r3, #4]
 1764              		.loc 1 1190 79
 1765 000e 1B0A     		lsrs	r3, r3, #8
 1766 0010 03F00703 		and	r3, r3, #7
 1767              		.loc 1 1190 49
 1768 0014 0349     		ldr	r1, .L123+4
 1769 0016 CB5C     		ldrb	r3, [r1, r3]	@ zero_extendqisi2
 1770              		.loc 1 1190 33
 1771 0018 22FA03F3 		lsr	r3, r2, r3
1191:./Drivers/STM32F1xx_HAL_Driver/Src/stm32f1xx_hal_rcc.c **** }
 1772              		.loc 1 1191 1
 1773 001c 1846     		mov	r0, r3
 1774 001e 80BD     		pop	{r7, pc}
 1775              	.L124:
 1776              		.align	2
 1777              	.L123:
 1778 0020 00100240 		.word	1073876992
 1779 0024 00000000 		.word	APBPrescTable
 1780              		.cfi_endproc
 1781              	.LFE73:
 1783              		.section	.text.HAL_RCC_GetPCLK2Freq,"ax",%progbits
 1784              		.align	1
 1785              		.global	HAL_RCC_GetPCLK2Freq
 1786              		.syntax unified
 1787              		.thumb
 1788              		.thumb_func
 1790              	HAL_RCC_GetPCLK2Freq:
 1791              	.LFB74:
1192:./Drivers/STM32F1xx_HAL_Driver/Src/stm32f1xx_hal_rcc.c **** 
1193:./Drivers/STM32F1xx_HAL_Driver/Src/stm32f1xx_hal_rcc.c **** /**
1194:./Drivers/STM32F1xx_HAL_Driver/Src/stm32f1xx_hal_rcc.c ****   * @brief  Returns the PCLK2 frequency
1195:./Drivers/STM32F1xx_HAL_Driver/Src/stm32f1xx_hal_rcc.c ****   * @note   Each time PCLK2 changes, this function must be called to update the
1196:./Drivers/STM32F1xx_HAL_Driver/Src/stm32f1xx_hal_rcc.c ****   *         right PCLK2 value. Otherwise, any configuration based on this function will be incorrec
1197:./Drivers/STM32F1xx_HAL_Driver/Src/stm32f1xx_hal_rcc.c ****   * @retval PCLK2 frequency
1198:./Drivers/STM32F1xx_HAL_Driver/Src/stm32f1xx_hal_rcc.c ****   */
1199:./Drivers/STM32F1xx_HAL_Driver/Src/stm32f1xx_hal_rcc.c **** uint32_t HAL_RCC_GetPCLK2Freq(void)
1200:./Drivers/STM32F1xx_HAL_Driver/Src/stm32f1xx_hal_rcc.c **** {
 1792              		.loc 1 1200 1
 1793              		.cfi_startproc
 1794              		@ args = 0, pretend = 0, frame = 0
 1795              		@ frame_needed = 1, uses_anonymous_args = 0
 1796 0000 80B5     		push	{r7, lr}
 1797              		.cfi_def_cfa_offset 8
 1798              		.cfi_offset 7, -8
ARM GAS  C:\Users\ULTIMA~1\AppData\Local\Temp\cc1JA9tE.s 			page 54


 1799              		.cfi_offset 14, -4
 1800 0002 00AF     		add	r7, sp, #0
 1801              		.cfi_def_cfa_register 7
1201:./Drivers/STM32F1xx_HAL_Driver/Src/stm32f1xx_hal_rcc.c ****   /* Get HCLK source and Compute PCLK2 frequency ---------------------------*/
1202:./Drivers/STM32F1xx_HAL_Driver/Src/stm32f1xx_hal_rcc.c ****   return (HAL_RCC_GetHCLKFreq() >> APBPrescTable[(RCC->CFGR & RCC_CFGR_PPRE2) >> RCC_CFGR_PPRE2_Pos
 1802              		.loc 1 1202 11
 1803 0004 FFF7FEFF 		bl	HAL_RCC_GetHCLKFreq
 1804 0008 0246     		mov	r2, r0
 1805              		.loc 1 1202 54
 1806 000a 054B     		ldr	r3, .L127
 1807 000c 5B68     		ldr	r3, [r3, #4]
 1808              		.loc 1 1202 79
 1809 000e DB0A     		lsrs	r3, r3, #11
 1810 0010 03F00703 		and	r3, r3, #7
 1811              		.loc 1 1202 49
 1812 0014 0349     		ldr	r1, .L127+4
 1813 0016 CB5C     		ldrb	r3, [r1, r3]	@ zero_extendqisi2
 1814              		.loc 1 1202 33
 1815 0018 22FA03F3 		lsr	r3, r2, r3
1203:./Drivers/STM32F1xx_HAL_Driver/Src/stm32f1xx_hal_rcc.c **** }
 1816              		.loc 1 1203 1
 1817 001c 1846     		mov	r0, r3
 1818 001e 80BD     		pop	{r7, pc}
 1819              	.L128:
 1820              		.align	2
 1821              	.L127:
 1822 0020 00100240 		.word	1073876992
 1823 0024 00000000 		.word	APBPrescTable
 1824              		.cfi_endproc
 1825              	.LFE74:
 1827              		.section	.text.HAL_RCC_GetOscConfig,"ax",%progbits
 1828              		.align	1
 1829              		.global	HAL_RCC_GetOscConfig
 1830              		.syntax unified
 1831              		.thumb
 1832              		.thumb_func
 1834              	HAL_RCC_GetOscConfig:
 1835              	.LFB75:
1204:./Drivers/STM32F1xx_HAL_Driver/Src/stm32f1xx_hal_rcc.c **** 
1205:./Drivers/STM32F1xx_HAL_Driver/Src/stm32f1xx_hal_rcc.c **** /**
1206:./Drivers/STM32F1xx_HAL_Driver/Src/stm32f1xx_hal_rcc.c ****   * @brief  Configures the RCC_OscInitStruct according to the internal
1207:./Drivers/STM32F1xx_HAL_Driver/Src/stm32f1xx_hal_rcc.c ****   * RCC configuration registers.
1208:./Drivers/STM32F1xx_HAL_Driver/Src/stm32f1xx_hal_rcc.c ****   * @param  RCC_OscInitStruct pointer to an RCC_OscInitTypeDef structure that
1209:./Drivers/STM32F1xx_HAL_Driver/Src/stm32f1xx_hal_rcc.c ****   * will be configured.
1210:./Drivers/STM32F1xx_HAL_Driver/Src/stm32f1xx_hal_rcc.c ****   * @retval None
1211:./Drivers/STM32F1xx_HAL_Driver/Src/stm32f1xx_hal_rcc.c ****   */
1212:./Drivers/STM32F1xx_HAL_Driver/Src/stm32f1xx_hal_rcc.c **** void HAL_RCC_GetOscConfig(RCC_OscInitTypeDef  *RCC_OscInitStruct)
1213:./Drivers/STM32F1xx_HAL_Driver/Src/stm32f1xx_hal_rcc.c **** {
 1836              		.loc 1 1213 1
 1837              		.cfi_startproc
 1838              		@ args = 0, pretend = 0, frame = 8
 1839              		@ frame_needed = 1, uses_anonymous_args = 0
 1840              		@ link register save eliminated.
 1841 0000 80B4     		push	{r7}
 1842              		.cfi_def_cfa_offset 4
 1843              		.cfi_offset 7, -4
 1844 0002 83B0     		sub	sp, sp, #12
ARM GAS  C:\Users\ULTIMA~1\AppData\Local\Temp\cc1JA9tE.s 			page 55


 1845              		.cfi_def_cfa_offset 16
 1846 0004 00AF     		add	r7, sp, #0
 1847              		.cfi_def_cfa_register 7
 1848 0006 7860     		str	r0, [r7, #4]
1214:./Drivers/STM32F1xx_HAL_Driver/Src/stm32f1xx_hal_rcc.c ****   /* Check the parameters */
1215:./Drivers/STM32F1xx_HAL_Driver/Src/stm32f1xx_hal_rcc.c ****   assert_param(RCC_OscInitStruct != NULL);
1216:./Drivers/STM32F1xx_HAL_Driver/Src/stm32f1xx_hal_rcc.c **** 
1217:./Drivers/STM32F1xx_HAL_Driver/Src/stm32f1xx_hal_rcc.c ****   /* Set all possible values for the Oscillator type parameter ---------------*/
1218:./Drivers/STM32F1xx_HAL_Driver/Src/stm32f1xx_hal_rcc.c ****   RCC_OscInitStruct->OscillatorType = RCC_OSCILLATORTYPE_HSE | RCC_OSCILLATORTYPE_HSI  \
 1849              		.loc 1 1218 37
 1850 0008 7B68     		ldr	r3, [r7, #4]
 1851 000a 0F22     		movs	r2, #15
 1852 000c 1A60     		str	r2, [r3]
1219:./Drivers/STM32F1xx_HAL_Driver/Src/stm32f1xx_hal_rcc.c ****                                       | RCC_OSCILLATORTYPE_LSE | RCC_OSCILLATORTYPE_LSI;
1220:./Drivers/STM32F1xx_HAL_Driver/Src/stm32f1xx_hal_rcc.c **** 
1221:./Drivers/STM32F1xx_HAL_Driver/Src/stm32f1xx_hal_rcc.c **** #if defined(RCC_CFGR2_PREDIV1SRC)
1222:./Drivers/STM32F1xx_HAL_Driver/Src/stm32f1xx_hal_rcc.c ****   /* Get the Prediv1 source --------------------------------------------------*/
1223:./Drivers/STM32F1xx_HAL_Driver/Src/stm32f1xx_hal_rcc.c ****   RCC_OscInitStruct->Prediv1Source = READ_BIT(RCC->CFGR2, RCC_CFGR2_PREDIV1SRC);
1224:./Drivers/STM32F1xx_HAL_Driver/Src/stm32f1xx_hal_rcc.c **** #endif /* RCC_CFGR2_PREDIV1SRC */
1225:./Drivers/STM32F1xx_HAL_Driver/Src/stm32f1xx_hal_rcc.c **** 
1226:./Drivers/STM32F1xx_HAL_Driver/Src/stm32f1xx_hal_rcc.c ****   /* Get the HSE configuration -----------------------------------------------*/
1227:./Drivers/STM32F1xx_HAL_Driver/Src/stm32f1xx_hal_rcc.c ****   if ((RCC->CR & RCC_CR_HSEBYP) == RCC_CR_HSEBYP)
 1853              		.loc 1 1227 11
 1854 000e 3C4B     		ldr	r3, .L142
 1855 0010 1B68     		ldr	r3, [r3]
 1856              		.loc 1 1227 16
 1857 0012 03F48023 		and	r3, r3, #262144
 1858              		.loc 1 1227 6
 1859 0016 B3F5802F 		cmp	r3, #262144
 1860 001a 04D1     		bne	.L130
1228:./Drivers/STM32F1xx_HAL_Driver/Src/stm32f1xx_hal_rcc.c ****   {
1229:./Drivers/STM32F1xx_HAL_Driver/Src/stm32f1xx_hal_rcc.c ****     RCC_OscInitStruct->HSEState = RCC_HSE_BYPASS;
 1861              		.loc 1 1229 33
 1862 001c 7B68     		ldr	r3, [r7, #4]
 1863 001e 4FF4A022 		mov	r2, #327680
 1864 0022 5A60     		str	r2, [r3, #4]
 1865 0024 0EE0     		b	.L131
 1866              	.L130:
1230:./Drivers/STM32F1xx_HAL_Driver/Src/stm32f1xx_hal_rcc.c ****   }
1231:./Drivers/STM32F1xx_HAL_Driver/Src/stm32f1xx_hal_rcc.c ****   else if ((RCC->CR & RCC_CR_HSEON) == RCC_CR_HSEON)
 1867              		.loc 1 1231 16
 1868 0026 364B     		ldr	r3, .L142
 1869 0028 1B68     		ldr	r3, [r3]
 1870              		.loc 1 1231 21
 1871 002a 03F48033 		and	r3, r3, #65536
 1872              		.loc 1 1231 11
 1873 002e B3F5803F 		cmp	r3, #65536
 1874 0032 04D1     		bne	.L132
1232:./Drivers/STM32F1xx_HAL_Driver/Src/stm32f1xx_hal_rcc.c ****   {
1233:./Drivers/STM32F1xx_HAL_Driver/Src/stm32f1xx_hal_rcc.c ****     RCC_OscInitStruct->HSEState = RCC_HSE_ON;
 1875              		.loc 1 1233 33
 1876 0034 7B68     		ldr	r3, [r7, #4]
 1877 0036 4FF48032 		mov	r2, #65536
 1878 003a 5A60     		str	r2, [r3, #4]
 1879 003c 02E0     		b	.L131
 1880              	.L132:
1234:./Drivers/STM32F1xx_HAL_Driver/Src/stm32f1xx_hal_rcc.c ****   }
ARM GAS  C:\Users\ULTIMA~1\AppData\Local\Temp\cc1JA9tE.s 			page 56


1235:./Drivers/STM32F1xx_HAL_Driver/Src/stm32f1xx_hal_rcc.c ****   else
1236:./Drivers/STM32F1xx_HAL_Driver/Src/stm32f1xx_hal_rcc.c ****   {
1237:./Drivers/STM32F1xx_HAL_Driver/Src/stm32f1xx_hal_rcc.c ****     RCC_OscInitStruct->HSEState = RCC_HSE_OFF;
 1881              		.loc 1 1237 33
 1882 003e 7B68     		ldr	r3, [r7, #4]
 1883 0040 0022     		movs	r2, #0
 1884 0042 5A60     		str	r2, [r3, #4]
 1885              	.L131:
1238:./Drivers/STM32F1xx_HAL_Driver/Src/stm32f1xx_hal_rcc.c ****   }
1239:./Drivers/STM32F1xx_HAL_Driver/Src/stm32f1xx_hal_rcc.c ****   RCC_OscInitStruct->HSEPredivValue = __HAL_RCC_HSE_GET_PREDIV();
 1886              		.loc 1 1239 39
 1887 0044 2E4B     		ldr	r3, .L142
 1888 0046 5B68     		ldr	r3, [r3, #4]
 1889 0048 03F40032 		and	r2, r3, #131072
 1890              		.loc 1 1239 37
 1891 004c 7B68     		ldr	r3, [r7, #4]
 1892 004e 9A60     		str	r2, [r3, #8]
1240:./Drivers/STM32F1xx_HAL_Driver/Src/stm32f1xx_hal_rcc.c **** 
1241:./Drivers/STM32F1xx_HAL_Driver/Src/stm32f1xx_hal_rcc.c ****   /* Get the HSI configuration -----------------------------------------------*/
1242:./Drivers/STM32F1xx_HAL_Driver/Src/stm32f1xx_hal_rcc.c ****   if ((RCC->CR & RCC_CR_HSION) == RCC_CR_HSION)
 1893              		.loc 1 1242 11
 1894 0050 2B4B     		ldr	r3, .L142
 1895 0052 1B68     		ldr	r3, [r3]
 1896              		.loc 1 1242 16
 1897 0054 03F00103 		and	r3, r3, #1
 1898              		.loc 1 1242 6
 1899 0058 012B     		cmp	r3, #1
 1900 005a 03D1     		bne	.L133
1243:./Drivers/STM32F1xx_HAL_Driver/Src/stm32f1xx_hal_rcc.c ****   {
1244:./Drivers/STM32F1xx_HAL_Driver/Src/stm32f1xx_hal_rcc.c ****     RCC_OscInitStruct->HSIState = RCC_HSI_ON;
 1901              		.loc 1 1244 33
 1902 005c 7B68     		ldr	r3, [r7, #4]
 1903 005e 0122     		movs	r2, #1
 1904 0060 1A61     		str	r2, [r3, #16]
 1905 0062 02E0     		b	.L134
 1906              	.L133:
1245:./Drivers/STM32F1xx_HAL_Driver/Src/stm32f1xx_hal_rcc.c ****   }
1246:./Drivers/STM32F1xx_HAL_Driver/Src/stm32f1xx_hal_rcc.c ****   else
1247:./Drivers/STM32F1xx_HAL_Driver/Src/stm32f1xx_hal_rcc.c ****   {
1248:./Drivers/STM32F1xx_HAL_Driver/Src/stm32f1xx_hal_rcc.c ****     RCC_OscInitStruct->HSIState = RCC_HSI_OFF;
 1907              		.loc 1 1248 33
 1908 0064 7B68     		ldr	r3, [r7, #4]
 1909 0066 0022     		movs	r2, #0
 1910 0068 1A61     		str	r2, [r3, #16]
 1911              	.L134:
1249:./Drivers/STM32F1xx_HAL_Driver/Src/stm32f1xx_hal_rcc.c ****   }
1250:./Drivers/STM32F1xx_HAL_Driver/Src/stm32f1xx_hal_rcc.c **** 
1251:./Drivers/STM32F1xx_HAL_Driver/Src/stm32f1xx_hal_rcc.c ****   RCC_OscInitStruct->HSICalibrationValue = (uint32_t)((RCC->CR & RCC_CR_HSITRIM) >> RCC_CR_HSITRIM_
 1912              		.loc 1 1251 59
 1913 006a 254B     		ldr	r3, .L142
 1914 006c 1B68     		ldr	r3, [r3]
 1915              		.loc 1 1251 44
 1916 006e DB08     		lsrs	r3, r3, #3
 1917 0070 03F01F02 		and	r2, r3, #31
 1918              		.loc 1 1251 42
 1919 0074 7B68     		ldr	r3, [r7, #4]
 1920 0076 5A61     		str	r2, [r3, #20]
ARM GAS  C:\Users\ULTIMA~1\AppData\Local\Temp\cc1JA9tE.s 			page 57


1252:./Drivers/STM32F1xx_HAL_Driver/Src/stm32f1xx_hal_rcc.c **** 
1253:./Drivers/STM32F1xx_HAL_Driver/Src/stm32f1xx_hal_rcc.c ****   /* Get the LSE configuration -----------------------------------------------*/
1254:./Drivers/STM32F1xx_HAL_Driver/Src/stm32f1xx_hal_rcc.c ****   if ((RCC->BDCR & RCC_BDCR_LSEBYP) == RCC_BDCR_LSEBYP)
 1921              		.loc 1 1254 11
 1922 0078 214B     		ldr	r3, .L142
 1923 007a 1B6A     		ldr	r3, [r3, #32]
 1924              		.loc 1 1254 18
 1925 007c 03F00403 		and	r3, r3, #4
 1926              		.loc 1 1254 6
 1927 0080 042B     		cmp	r3, #4
 1928 0082 03D1     		bne	.L135
1255:./Drivers/STM32F1xx_HAL_Driver/Src/stm32f1xx_hal_rcc.c ****   {
1256:./Drivers/STM32F1xx_HAL_Driver/Src/stm32f1xx_hal_rcc.c ****     RCC_OscInitStruct->LSEState = RCC_LSE_BYPASS;
 1929              		.loc 1 1256 33
 1930 0084 7B68     		ldr	r3, [r7, #4]
 1931 0086 0522     		movs	r2, #5
 1932 0088 DA60     		str	r2, [r3, #12]
 1933 008a 0CE0     		b	.L136
 1934              	.L135:
1257:./Drivers/STM32F1xx_HAL_Driver/Src/stm32f1xx_hal_rcc.c ****   }
1258:./Drivers/STM32F1xx_HAL_Driver/Src/stm32f1xx_hal_rcc.c ****   else if ((RCC->BDCR & RCC_BDCR_LSEON) == RCC_BDCR_LSEON)
 1935              		.loc 1 1258 16
 1936 008c 1C4B     		ldr	r3, .L142
 1937 008e 1B6A     		ldr	r3, [r3, #32]
 1938              		.loc 1 1258 23
 1939 0090 03F00103 		and	r3, r3, #1
 1940              		.loc 1 1258 11
 1941 0094 012B     		cmp	r3, #1
 1942 0096 03D1     		bne	.L137
1259:./Drivers/STM32F1xx_HAL_Driver/Src/stm32f1xx_hal_rcc.c ****   {
1260:./Drivers/STM32F1xx_HAL_Driver/Src/stm32f1xx_hal_rcc.c ****     RCC_OscInitStruct->LSEState = RCC_LSE_ON;
 1943              		.loc 1 1260 33
 1944 0098 7B68     		ldr	r3, [r7, #4]
 1945 009a 0122     		movs	r2, #1
 1946 009c DA60     		str	r2, [r3, #12]
 1947 009e 02E0     		b	.L136
 1948              	.L137:
1261:./Drivers/STM32F1xx_HAL_Driver/Src/stm32f1xx_hal_rcc.c ****   }
1262:./Drivers/STM32F1xx_HAL_Driver/Src/stm32f1xx_hal_rcc.c ****   else
1263:./Drivers/STM32F1xx_HAL_Driver/Src/stm32f1xx_hal_rcc.c ****   {
1264:./Drivers/STM32F1xx_HAL_Driver/Src/stm32f1xx_hal_rcc.c ****     RCC_OscInitStruct->LSEState = RCC_LSE_OFF;
 1949              		.loc 1 1264 33
 1950 00a0 7B68     		ldr	r3, [r7, #4]
 1951 00a2 0022     		movs	r2, #0
 1952 00a4 DA60     		str	r2, [r3, #12]
 1953              	.L136:
1265:./Drivers/STM32F1xx_HAL_Driver/Src/stm32f1xx_hal_rcc.c ****   }
1266:./Drivers/STM32F1xx_HAL_Driver/Src/stm32f1xx_hal_rcc.c **** 
1267:./Drivers/STM32F1xx_HAL_Driver/Src/stm32f1xx_hal_rcc.c ****   /* Get the LSI configuration -----------------------------------------------*/
1268:./Drivers/STM32F1xx_HAL_Driver/Src/stm32f1xx_hal_rcc.c ****   if ((RCC->CSR & RCC_CSR_LSION) == RCC_CSR_LSION)
 1954              		.loc 1 1268 11
 1955 00a6 164B     		ldr	r3, .L142
 1956 00a8 5B6A     		ldr	r3, [r3, #36]
 1957              		.loc 1 1268 17
 1958 00aa 03F00103 		and	r3, r3, #1
 1959              		.loc 1 1268 6
 1960 00ae 012B     		cmp	r3, #1
ARM GAS  C:\Users\ULTIMA~1\AppData\Local\Temp\cc1JA9tE.s 			page 58


 1961 00b0 03D1     		bne	.L138
1269:./Drivers/STM32F1xx_HAL_Driver/Src/stm32f1xx_hal_rcc.c ****   {
1270:./Drivers/STM32F1xx_HAL_Driver/Src/stm32f1xx_hal_rcc.c ****     RCC_OscInitStruct->LSIState = RCC_LSI_ON;
 1962              		.loc 1 1270 33
 1963 00b2 7B68     		ldr	r3, [r7, #4]
 1964 00b4 0122     		movs	r2, #1
 1965 00b6 9A61     		str	r2, [r3, #24]
 1966 00b8 02E0     		b	.L139
 1967              	.L138:
1271:./Drivers/STM32F1xx_HAL_Driver/Src/stm32f1xx_hal_rcc.c ****   }
1272:./Drivers/STM32F1xx_HAL_Driver/Src/stm32f1xx_hal_rcc.c ****   else
1273:./Drivers/STM32F1xx_HAL_Driver/Src/stm32f1xx_hal_rcc.c ****   {
1274:./Drivers/STM32F1xx_HAL_Driver/Src/stm32f1xx_hal_rcc.c ****     RCC_OscInitStruct->LSIState = RCC_LSI_OFF;
 1968              		.loc 1 1274 33
 1969 00ba 7B68     		ldr	r3, [r7, #4]
 1970 00bc 0022     		movs	r2, #0
 1971 00be 9A61     		str	r2, [r3, #24]
 1972              	.L139:
1275:./Drivers/STM32F1xx_HAL_Driver/Src/stm32f1xx_hal_rcc.c ****   }
1276:./Drivers/STM32F1xx_HAL_Driver/Src/stm32f1xx_hal_rcc.c **** 
1277:./Drivers/STM32F1xx_HAL_Driver/Src/stm32f1xx_hal_rcc.c **** 
1278:./Drivers/STM32F1xx_HAL_Driver/Src/stm32f1xx_hal_rcc.c ****   /* Get the PLL configuration -----------------------------------------------*/
1279:./Drivers/STM32F1xx_HAL_Driver/Src/stm32f1xx_hal_rcc.c ****   if ((RCC->CR & RCC_CR_PLLON) == RCC_CR_PLLON)
 1973              		.loc 1 1279 11
 1974 00c0 0F4B     		ldr	r3, .L142
 1975 00c2 1B68     		ldr	r3, [r3]
 1976              		.loc 1 1279 16
 1977 00c4 03F08073 		and	r3, r3, #16777216
 1978              		.loc 1 1279 6
 1979 00c8 B3F1807F 		cmp	r3, #16777216
 1980 00cc 03D1     		bne	.L140
1280:./Drivers/STM32F1xx_HAL_Driver/Src/stm32f1xx_hal_rcc.c ****   {
1281:./Drivers/STM32F1xx_HAL_Driver/Src/stm32f1xx_hal_rcc.c ****     RCC_OscInitStruct->PLL.PLLState = RCC_PLL_ON;
 1981              		.loc 1 1281 37
 1982 00ce 7B68     		ldr	r3, [r7, #4]
 1983 00d0 0222     		movs	r2, #2
 1984 00d2 DA61     		str	r2, [r3, #28]
 1985 00d4 02E0     		b	.L141
 1986              	.L140:
1282:./Drivers/STM32F1xx_HAL_Driver/Src/stm32f1xx_hal_rcc.c ****   }
1283:./Drivers/STM32F1xx_HAL_Driver/Src/stm32f1xx_hal_rcc.c ****   else
1284:./Drivers/STM32F1xx_HAL_Driver/Src/stm32f1xx_hal_rcc.c ****   {
1285:./Drivers/STM32F1xx_HAL_Driver/Src/stm32f1xx_hal_rcc.c ****     RCC_OscInitStruct->PLL.PLLState = RCC_PLL_OFF;
 1987              		.loc 1 1285 37
 1988 00d6 7B68     		ldr	r3, [r7, #4]
 1989 00d8 0122     		movs	r2, #1
 1990 00da DA61     		str	r2, [r3, #28]
 1991              	.L141:
1286:./Drivers/STM32F1xx_HAL_Driver/Src/stm32f1xx_hal_rcc.c ****   }
1287:./Drivers/STM32F1xx_HAL_Driver/Src/stm32f1xx_hal_rcc.c ****   RCC_OscInitStruct->PLL.PLLSource = (uint32_t)(RCC->CFGR & RCC_CFGR_PLLSRC);
 1992              		.loc 1 1287 52
 1993 00dc 084B     		ldr	r3, .L142
 1994 00de 5B68     		ldr	r3, [r3, #4]
 1995              		.loc 1 1287 38
 1996 00e0 03F48032 		and	r2, r3, #65536
 1997              		.loc 1 1287 36
 1998 00e4 7B68     		ldr	r3, [r7, #4]
ARM GAS  C:\Users\ULTIMA~1\AppData\Local\Temp\cc1JA9tE.s 			page 59


 1999 00e6 1A62     		str	r2, [r3, #32]
1288:./Drivers/STM32F1xx_HAL_Driver/Src/stm32f1xx_hal_rcc.c ****   RCC_OscInitStruct->PLL.PLLMUL = (uint32_t)(RCC->CFGR & RCC_CFGR_PLLMULL);
 2000              		.loc 1 1288 49
 2001 00e8 054B     		ldr	r3, .L142
 2002 00ea 5B68     		ldr	r3, [r3, #4]
 2003              		.loc 1 1288 35
 2004 00ec 03F47012 		and	r2, r3, #3932160
 2005              		.loc 1 1288 33
 2006 00f0 7B68     		ldr	r3, [r7, #4]
 2007 00f2 5A62     		str	r2, [r3, #36]
1289:./Drivers/STM32F1xx_HAL_Driver/Src/stm32f1xx_hal_rcc.c **** #if defined(RCC_CR_PLL2ON)
1290:./Drivers/STM32F1xx_HAL_Driver/Src/stm32f1xx_hal_rcc.c ****   /* Get the PLL2 configuration -----------------------------------------------*/
1291:./Drivers/STM32F1xx_HAL_Driver/Src/stm32f1xx_hal_rcc.c ****   if ((RCC->CR & RCC_CR_PLL2ON) == RCC_CR_PLL2ON)
1292:./Drivers/STM32F1xx_HAL_Driver/Src/stm32f1xx_hal_rcc.c ****   {
1293:./Drivers/STM32F1xx_HAL_Driver/Src/stm32f1xx_hal_rcc.c ****     RCC_OscInitStruct->PLL2.PLL2State = RCC_PLL2_ON;
1294:./Drivers/STM32F1xx_HAL_Driver/Src/stm32f1xx_hal_rcc.c ****   }
1295:./Drivers/STM32F1xx_HAL_Driver/Src/stm32f1xx_hal_rcc.c ****   else
1296:./Drivers/STM32F1xx_HAL_Driver/Src/stm32f1xx_hal_rcc.c ****   {
1297:./Drivers/STM32F1xx_HAL_Driver/Src/stm32f1xx_hal_rcc.c ****     RCC_OscInitStruct->PLL2.PLL2State = RCC_PLL2_OFF;
1298:./Drivers/STM32F1xx_HAL_Driver/Src/stm32f1xx_hal_rcc.c ****   }
1299:./Drivers/STM32F1xx_HAL_Driver/Src/stm32f1xx_hal_rcc.c ****   RCC_OscInitStruct->PLL2.HSEPrediv2Value = __HAL_RCC_HSE_GET_PREDIV2();
1300:./Drivers/STM32F1xx_HAL_Driver/Src/stm32f1xx_hal_rcc.c ****   RCC_OscInitStruct->PLL2.PLL2MUL = (uint32_t)(RCC->CFGR2 & RCC_CFGR2_PLL2MUL);
1301:./Drivers/STM32F1xx_HAL_Driver/Src/stm32f1xx_hal_rcc.c **** #endif /* RCC_CR_PLL2ON */
1302:./Drivers/STM32F1xx_HAL_Driver/Src/stm32f1xx_hal_rcc.c **** }
 2008              		.loc 1 1302 1
 2009 00f4 00BF     		nop
 2010 00f6 0C37     		adds	r7, r7, #12
 2011              		.cfi_def_cfa_offset 4
 2012 00f8 BD46     		mov	sp, r7
 2013              		.cfi_def_cfa_register 13
 2014              		@ sp needed
 2015 00fa 80BC     		pop	{r7}
 2016              		.cfi_restore 7
 2017              		.cfi_def_cfa_offset 0
 2018 00fc 7047     		bx	lr
 2019              	.L143:
 2020 00fe 00BF     		.align	2
 2021              	.L142:
 2022 0100 00100240 		.word	1073876992
 2023              		.cfi_endproc
 2024              	.LFE75:
 2026              		.section	.text.HAL_RCC_GetClockConfig,"ax",%progbits
 2027              		.align	1
 2028              		.global	HAL_RCC_GetClockConfig
 2029              		.syntax unified
 2030              		.thumb
 2031              		.thumb_func
 2033              	HAL_RCC_GetClockConfig:
 2034              	.LFB76:
1303:./Drivers/STM32F1xx_HAL_Driver/Src/stm32f1xx_hal_rcc.c **** 
1304:./Drivers/STM32F1xx_HAL_Driver/Src/stm32f1xx_hal_rcc.c **** /**
1305:./Drivers/STM32F1xx_HAL_Driver/Src/stm32f1xx_hal_rcc.c ****   * @brief  Get the RCC_ClkInitStruct according to the internal
1306:./Drivers/STM32F1xx_HAL_Driver/Src/stm32f1xx_hal_rcc.c ****   * RCC configuration registers.
1307:./Drivers/STM32F1xx_HAL_Driver/Src/stm32f1xx_hal_rcc.c ****   * @param  RCC_ClkInitStruct pointer to an RCC_ClkInitTypeDef structure that
1308:./Drivers/STM32F1xx_HAL_Driver/Src/stm32f1xx_hal_rcc.c ****   * contains the current clock configuration.
1309:./Drivers/STM32F1xx_HAL_Driver/Src/stm32f1xx_hal_rcc.c ****   * @param  pFLatency Pointer on the Flash Latency.
1310:./Drivers/STM32F1xx_HAL_Driver/Src/stm32f1xx_hal_rcc.c ****   * @retval None
ARM GAS  C:\Users\ULTIMA~1\AppData\Local\Temp\cc1JA9tE.s 			page 60


1311:./Drivers/STM32F1xx_HAL_Driver/Src/stm32f1xx_hal_rcc.c ****   */
1312:./Drivers/STM32F1xx_HAL_Driver/Src/stm32f1xx_hal_rcc.c **** void HAL_RCC_GetClockConfig(RCC_ClkInitTypeDef  *RCC_ClkInitStruct, uint32_t *pFLatency)
1313:./Drivers/STM32F1xx_HAL_Driver/Src/stm32f1xx_hal_rcc.c **** {
 2035              		.loc 1 1313 1
 2036              		.cfi_startproc
 2037              		@ args = 0, pretend = 0, frame = 8
 2038              		@ frame_needed = 1, uses_anonymous_args = 0
 2039              		@ link register save eliminated.
 2040 0000 80B4     		push	{r7}
 2041              		.cfi_def_cfa_offset 4
 2042              		.cfi_offset 7, -4
 2043 0002 83B0     		sub	sp, sp, #12
 2044              		.cfi_def_cfa_offset 16
 2045 0004 00AF     		add	r7, sp, #0
 2046              		.cfi_def_cfa_register 7
 2047 0006 7860     		str	r0, [r7, #4]
 2048 0008 3960     		str	r1, [r7]
1314:./Drivers/STM32F1xx_HAL_Driver/Src/stm32f1xx_hal_rcc.c ****   /* Check the parameters */
1315:./Drivers/STM32F1xx_HAL_Driver/Src/stm32f1xx_hal_rcc.c ****   assert_param(RCC_ClkInitStruct != NULL);
1316:./Drivers/STM32F1xx_HAL_Driver/Src/stm32f1xx_hal_rcc.c ****   assert_param(pFLatency != NULL);
1317:./Drivers/STM32F1xx_HAL_Driver/Src/stm32f1xx_hal_rcc.c **** 
1318:./Drivers/STM32F1xx_HAL_Driver/Src/stm32f1xx_hal_rcc.c ****   /* Set all possible values for the Clock type parameter --------------------*/
1319:./Drivers/STM32F1xx_HAL_Driver/Src/stm32f1xx_hal_rcc.c ****   RCC_ClkInitStruct->ClockType = RCC_CLOCKTYPE_SYSCLK | RCC_CLOCKTYPE_HCLK | RCC_CLOCKTYPE_PCLK1 | 
 2049              		.loc 1 1319 32
 2050 000a 7B68     		ldr	r3, [r7, #4]
 2051 000c 0F22     		movs	r2, #15
 2052 000e 1A60     		str	r2, [r3]
1320:./Drivers/STM32F1xx_HAL_Driver/Src/stm32f1xx_hal_rcc.c **** 
1321:./Drivers/STM32F1xx_HAL_Driver/Src/stm32f1xx_hal_rcc.c ****   /* Get the SYSCLK configuration --------------------------------------------*/
1322:./Drivers/STM32F1xx_HAL_Driver/Src/stm32f1xx_hal_rcc.c ****   RCC_ClkInitStruct->SYSCLKSource = (uint32_t)(RCC->CFGR & RCC_CFGR_SW);
 2053              		.loc 1 1322 51
 2054 0010 114B     		ldr	r3, .L145
 2055 0012 5B68     		ldr	r3, [r3, #4]
 2056              		.loc 1 1322 37
 2057 0014 03F00302 		and	r2, r3, #3
 2058              		.loc 1 1322 35
 2059 0018 7B68     		ldr	r3, [r7, #4]
 2060 001a 5A60     		str	r2, [r3, #4]
1323:./Drivers/STM32F1xx_HAL_Driver/Src/stm32f1xx_hal_rcc.c **** 
1324:./Drivers/STM32F1xx_HAL_Driver/Src/stm32f1xx_hal_rcc.c ****   /* Get the HCLK configuration ----------------------------------------------*/
1325:./Drivers/STM32F1xx_HAL_Driver/Src/stm32f1xx_hal_rcc.c ****   RCC_ClkInitStruct->AHBCLKDivider = (uint32_t)(RCC->CFGR & RCC_CFGR_HPRE);
 2061              		.loc 1 1325 52
 2062 001c 0E4B     		ldr	r3, .L145
 2063 001e 5B68     		ldr	r3, [r3, #4]
 2064              		.loc 1 1325 38
 2065 0020 03F0F002 		and	r2, r3, #240
 2066              		.loc 1 1325 36
 2067 0024 7B68     		ldr	r3, [r7, #4]
 2068 0026 9A60     		str	r2, [r3, #8]
1326:./Drivers/STM32F1xx_HAL_Driver/Src/stm32f1xx_hal_rcc.c **** 
1327:./Drivers/STM32F1xx_HAL_Driver/Src/stm32f1xx_hal_rcc.c ****   /* Get the APB1 configuration ----------------------------------------------*/
1328:./Drivers/STM32F1xx_HAL_Driver/Src/stm32f1xx_hal_rcc.c ****   RCC_ClkInitStruct->APB1CLKDivider = (uint32_t)(RCC->CFGR & RCC_CFGR_PPRE1);
 2069              		.loc 1 1328 53
 2070 0028 0B4B     		ldr	r3, .L145
 2071 002a 5B68     		ldr	r3, [r3, #4]
 2072              		.loc 1 1328 39
 2073 002c 03F4E062 		and	r2, r3, #1792
ARM GAS  C:\Users\ULTIMA~1\AppData\Local\Temp\cc1JA9tE.s 			page 61


 2074              		.loc 1 1328 37
 2075 0030 7B68     		ldr	r3, [r7, #4]
 2076 0032 DA60     		str	r2, [r3, #12]
1329:./Drivers/STM32F1xx_HAL_Driver/Src/stm32f1xx_hal_rcc.c **** 
1330:./Drivers/STM32F1xx_HAL_Driver/Src/stm32f1xx_hal_rcc.c ****   /* Get the APB2 configuration ----------------------------------------------*/
1331:./Drivers/STM32F1xx_HAL_Driver/Src/stm32f1xx_hal_rcc.c ****   RCC_ClkInitStruct->APB2CLKDivider = (uint32_t)((RCC->CFGR & RCC_CFGR_PPRE2) >> 3);
 2077              		.loc 1 1331 54
 2078 0034 084B     		ldr	r3, .L145
 2079 0036 5B68     		ldr	r3, [r3, #4]
 2080              		.loc 1 1331 39
 2081 0038 DB08     		lsrs	r3, r3, #3
 2082 003a 03F4E062 		and	r2, r3, #1792
 2083              		.loc 1 1331 37
 2084 003e 7B68     		ldr	r3, [r7, #4]
 2085 0040 1A61     		str	r2, [r3, #16]
1332:./Drivers/STM32F1xx_HAL_Driver/Src/stm32f1xx_hal_rcc.c **** 
1333:./Drivers/STM32F1xx_HAL_Driver/Src/stm32f1xx_hal_rcc.c **** #if   defined(FLASH_ACR_LATENCY)
1334:./Drivers/STM32F1xx_HAL_Driver/Src/stm32f1xx_hal_rcc.c ****   /* Get the Flash Wait State (Latency) configuration ------------------------*/
1335:./Drivers/STM32F1xx_HAL_Driver/Src/stm32f1xx_hal_rcc.c ****   *pFLatency = (uint32_t)(FLASH->ACR & FLASH_ACR_LATENCY);
 2086              		.loc 1 1335 32
 2087 0042 064B     		ldr	r3, .L145+4
 2088 0044 1B68     		ldr	r3, [r3]
 2089              		.loc 1 1335 16
 2090 0046 03F00702 		and	r2, r3, #7
 2091              		.loc 1 1335 14
 2092 004a 3B68     		ldr	r3, [r7]
 2093 004c 1A60     		str	r2, [r3]
1336:./Drivers/STM32F1xx_HAL_Driver/Src/stm32f1xx_hal_rcc.c **** #else
1337:./Drivers/STM32F1xx_HAL_Driver/Src/stm32f1xx_hal_rcc.c ****   /* For VALUE lines devices, only LATENCY_0 can be set*/
1338:./Drivers/STM32F1xx_HAL_Driver/Src/stm32f1xx_hal_rcc.c ****   *pFLatency = (uint32_t)FLASH_LATENCY_0;
1339:./Drivers/STM32F1xx_HAL_Driver/Src/stm32f1xx_hal_rcc.c **** #endif
1340:./Drivers/STM32F1xx_HAL_Driver/Src/stm32f1xx_hal_rcc.c **** }
 2094              		.loc 1 1340 1
 2095 004e 00BF     		nop
 2096 0050 0C37     		adds	r7, r7, #12
 2097              		.cfi_def_cfa_offset 4
 2098 0052 BD46     		mov	sp, r7
 2099              		.cfi_def_cfa_register 13
 2100              		@ sp needed
 2101 0054 80BC     		pop	{r7}
 2102              		.cfi_restore 7
 2103              		.cfi_def_cfa_offset 0
 2104 0056 7047     		bx	lr
 2105              	.L146:
 2106              		.align	2
 2107              	.L145:
 2108 0058 00100240 		.word	1073876992
 2109 005c 00200240 		.word	1073881088
 2110              		.cfi_endproc
 2111              	.LFE76:
 2113              		.section	.text.HAL_RCC_NMI_IRQHandler,"ax",%progbits
 2114              		.align	1
 2115              		.global	HAL_RCC_NMI_IRQHandler
 2116              		.syntax unified
 2117              		.thumb
 2118              		.thumb_func
 2120              	HAL_RCC_NMI_IRQHandler:
ARM GAS  C:\Users\ULTIMA~1\AppData\Local\Temp\cc1JA9tE.s 			page 62


 2121              	.LFB77:
1341:./Drivers/STM32F1xx_HAL_Driver/Src/stm32f1xx_hal_rcc.c **** 
1342:./Drivers/STM32F1xx_HAL_Driver/Src/stm32f1xx_hal_rcc.c **** /**
1343:./Drivers/STM32F1xx_HAL_Driver/Src/stm32f1xx_hal_rcc.c ****   * @brief This function handles the RCC CSS interrupt request.
1344:./Drivers/STM32F1xx_HAL_Driver/Src/stm32f1xx_hal_rcc.c ****   * @note This API should be called under the NMI_Handler().
1345:./Drivers/STM32F1xx_HAL_Driver/Src/stm32f1xx_hal_rcc.c ****   * @retval None
1346:./Drivers/STM32F1xx_HAL_Driver/Src/stm32f1xx_hal_rcc.c ****   */
1347:./Drivers/STM32F1xx_HAL_Driver/Src/stm32f1xx_hal_rcc.c **** void HAL_RCC_NMI_IRQHandler(void)
1348:./Drivers/STM32F1xx_HAL_Driver/Src/stm32f1xx_hal_rcc.c **** {
 2122              		.loc 1 1348 1
 2123              		.cfi_startproc
 2124              		@ args = 0, pretend = 0, frame = 0
 2125              		@ frame_needed = 1, uses_anonymous_args = 0
 2126 0000 80B5     		push	{r7, lr}
 2127              		.cfi_def_cfa_offset 8
 2128              		.cfi_offset 7, -8
 2129              		.cfi_offset 14, -4
 2130 0002 00AF     		add	r7, sp, #0
 2131              		.cfi_def_cfa_register 7
1349:./Drivers/STM32F1xx_HAL_Driver/Src/stm32f1xx_hal_rcc.c ****   /* Check RCC CSSF flag  */
1350:./Drivers/STM32F1xx_HAL_Driver/Src/stm32f1xx_hal_rcc.c ****   if (__HAL_RCC_GET_IT(RCC_IT_CSS))
 2132              		.loc 1 1350 7
 2133 0004 064B     		ldr	r3, .L150
 2134 0006 9B68     		ldr	r3, [r3, #8]
 2135 0008 03F08003 		and	r3, r3, #128
 2136              		.loc 1 1350 6
 2137 000c 802B     		cmp	r3, #128
 2138 000e 04D1     		bne	.L149
1351:./Drivers/STM32F1xx_HAL_Driver/Src/stm32f1xx_hal_rcc.c ****   {
1352:./Drivers/STM32F1xx_HAL_Driver/Src/stm32f1xx_hal_rcc.c ****     /* RCC Clock Security System interrupt user callback */
1353:./Drivers/STM32F1xx_HAL_Driver/Src/stm32f1xx_hal_rcc.c ****     HAL_RCC_CSSCallback();
 2139              		.loc 1 1353 5
 2140 0010 FFF7FEFF 		bl	HAL_RCC_CSSCallback
1354:./Drivers/STM32F1xx_HAL_Driver/Src/stm32f1xx_hal_rcc.c **** 
1355:./Drivers/STM32F1xx_HAL_Driver/Src/stm32f1xx_hal_rcc.c ****     /* Clear RCC CSS pending bit */
1356:./Drivers/STM32F1xx_HAL_Driver/Src/stm32f1xx_hal_rcc.c ****     __HAL_RCC_CLEAR_IT(RCC_IT_CSS);
 2141              		.loc 1 1356 5
 2142 0014 034B     		ldr	r3, .L150+4
 2143 0016 8022     		movs	r2, #128
 2144 0018 1A70     		strb	r2, [r3]
 2145              	.L149:
1357:./Drivers/STM32F1xx_HAL_Driver/Src/stm32f1xx_hal_rcc.c ****   }
1358:./Drivers/STM32F1xx_HAL_Driver/Src/stm32f1xx_hal_rcc.c **** }
 2146              		.loc 1 1358 1
 2147 001a 00BF     		nop
 2148 001c 80BD     		pop	{r7, pc}
 2149              	.L151:
 2150 001e 00BF     		.align	2
 2151              	.L150:
 2152 0020 00100240 		.word	1073876992
 2153 0024 0A100240 		.word	1073877002
 2154              		.cfi_endproc
 2155              	.LFE77:
 2157              		.section	.text.RCC_Delay,"ax",%progbits
 2158              		.align	1
 2159              		.syntax unified
 2160              		.thumb
ARM GAS  C:\Users\ULTIMA~1\AppData\Local\Temp\cc1JA9tE.s 			page 63


 2161              		.thumb_func
 2163              	RCC_Delay:
 2164              	.LFB78:
1359:./Drivers/STM32F1xx_HAL_Driver/Src/stm32f1xx_hal_rcc.c **** 
1360:./Drivers/STM32F1xx_HAL_Driver/Src/stm32f1xx_hal_rcc.c **** /**
1361:./Drivers/STM32F1xx_HAL_Driver/Src/stm32f1xx_hal_rcc.c ****   * @brief  This function provides delay (in milliseconds) based on CPU cycles method.
1362:./Drivers/STM32F1xx_HAL_Driver/Src/stm32f1xx_hal_rcc.c ****   * @param  mdelay: specifies the delay time length, in milliseconds.
1363:./Drivers/STM32F1xx_HAL_Driver/Src/stm32f1xx_hal_rcc.c ****   * @retval None
1364:./Drivers/STM32F1xx_HAL_Driver/Src/stm32f1xx_hal_rcc.c ****   */
1365:./Drivers/STM32F1xx_HAL_Driver/Src/stm32f1xx_hal_rcc.c **** static void RCC_Delay(uint32_t mdelay)
1366:./Drivers/STM32F1xx_HAL_Driver/Src/stm32f1xx_hal_rcc.c **** {
 2165              		.loc 1 1366 1
 2166              		.cfi_startproc
 2167              		@ args = 0, pretend = 0, frame = 16
 2168              		@ frame_needed = 1, uses_anonymous_args = 0
 2169              		@ link register save eliminated.
 2170 0000 80B4     		push	{r7}
 2171              		.cfi_def_cfa_offset 4
 2172              		.cfi_offset 7, -4
 2173 0002 85B0     		sub	sp, sp, #20
 2174              		.cfi_def_cfa_offset 24
 2175 0004 00AF     		add	r7, sp, #0
 2176              		.cfi_def_cfa_register 7
 2177 0006 7860     		str	r0, [r7, #4]
1367:./Drivers/STM32F1xx_HAL_Driver/Src/stm32f1xx_hal_rcc.c ****   __IO uint32_t Delay = mdelay * (SystemCoreClock / 8U / 1000U);
 2178              		.loc 1 1367 56
 2179 0008 0A4B     		ldr	r3, .L154
 2180 000a 1B68     		ldr	r3, [r3]
 2181 000c 0A4A     		ldr	r2, .L154+4
 2182 000e A2FB0323 		umull	r2, r3, r2, r3
 2183 0012 5B0A     		lsrs	r3, r3, #9
 2184              		.loc 1 1367 32
 2185 0014 7A68     		ldr	r2, [r7, #4]
 2186 0016 02FB03F3 		mul	r3, r2, r3
 2187              		.loc 1 1367 17
 2188 001a FB60     		str	r3, [r7, #12]
 2189              	.L153:
1368:./Drivers/STM32F1xx_HAL_Driver/Src/stm32f1xx_hal_rcc.c ****   do
1369:./Drivers/STM32F1xx_HAL_Driver/Src/stm32f1xx_hal_rcc.c ****   {
1370:./Drivers/STM32F1xx_HAL_Driver/Src/stm32f1xx_hal_rcc.c ****     __NOP();
 2190              		.loc 1 1370 5 discriminator 1
 2191              		.syntax unified
 2192              	@ 1370 "./Drivers/STM32F1xx_HAL_Driver/Src/stm32f1xx_hal_rcc.c" 1
 2193 001c 00BF     		nop
 2194              	@ 0 "" 2
1371:./Drivers/STM32F1xx_HAL_Driver/Src/stm32f1xx_hal_rcc.c ****   }
1372:./Drivers/STM32F1xx_HAL_Driver/Src/stm32f1xx_hal_rcc.c ****   while (Delay --);
 2195              		.loc 1 1372 16 discriminator 1
 2196              		.thumb
 2197              		.syntax unified
 2198 001e FB68     		ldr	r3, [r7, #12]
 2199 0020 5A1E     		subs	r2, r3, #1
 2200 0022 FA60     		str	r2, [r7, #12]
 2201              		.loc 1 1372 3 discriminator 1
 2202 0024 002B     		cmp	r3, #0
 2203 0026 F9D1     		bne	.L153
1373:./Drivers/STM32F1xx_HAL_Driver/Src/stm32f1xx_hal_rcc.c **** }
ARM GAS  C:\Users\ULTIMA~1\AppData\Local\Temp\cc1JA9tE.s 			page 64


 2204              		.loc 1 1373 1
 2205 0028 00BF     		nop
 2206 002a 00BF     		nop
 2207 002c 1437     		adds	r7, r7, #20
 2208              		.cfi_def_cfa_offset 4
 2209 002e BD46     		mov	sp, r7
 2210              		.cfi_def_cfa_register 13
 2211              		@ sp needed
 2212 0030 80BC     		pop	{r7}
 2213              		.cfi_restore 7
 2214              		.cfi_def_cfa_offset 0
 2215 0032 7047     		bx	lr
 2216              	.L155:
 2217              		.align	2
 2218              	.L154:
 2219 0034 00000000 		.word	SystemCoreClock
 2220 0038 D34D6210 		.word	274877907
 2221              		.cfi_endproc
 2222              	.LFE78:
 2224              		.section	.text.HAL_RCC_CSSCallback,"ax",%progbits
 2225              		.align	1
 2226              		.weak	HAL_RCC_CSSCallback
 2227              		.syntax unified
 2228              		.thumb
 2229              		.thumb_func
 2231              	HAL_RCC_CSSCallback:
 2232              	.LFB79:
1374:./Drivers/STM32F1xx_HAL_Driver/Src/stm32f1xx_hal_rcc.c **** 
1375:./Drivers/STM32F1xx_HAL_Driver/Src/stm32f1xx_hal_rcc.c **** /**
1376:./Drivers/STM32F1xx_HAL_Driver/Src/stm32f1xx_hal_rcc.c ****   * @brief  RCC Clock Security System interrupt callback
1377:./Drivers/STM32F1xx_HAL_Driver/Src/stm32f1xx_hal_rcc.c ****   * @retval none
1378:./Drivers/STM32F1xx_HAL_Driver/Src/stm32f1xx_hal_rcc.c ****   */
1379:./Drivers/STM32F1xx_HAL_Driver/Src/stm32f1xx_hal_rcc.c **** __weak void HAL_RCC_CSSCallback(void)
1380:./Drivers/STM32F1xx_HAL_Driver/Src/stm32f1xx_hal_rcc.c **** {
 2233              		.loc 1 1380 1
 2234              		.cfi_startproc
 2235              		@ args = 0, pretend = 0, frame = 0
 2236              		@ frame_needed = 1, uses_anonymous_args = 0
 2237              		@ link register save eliminated.
 2238 0000 80B4     		push	{r7}
 2239              		.cfi_def_cfa_offset 4
 2240              		.cfi_offset 7, -4
 2241 0002 00AF     		add	r7, sp, #0
 2242              		.cfi_def_cfa_register 7
1381:./Drivers/STM32F1xx_HAL_Driver/Src/stm32f1xx_hal_rcc.c ****   /* NOTE : This function Should not be modified, when the callback is needed,
1382:./Drivers/STM32F1xx_HAL_Driver/Src/stm32f1xx_hal_rcc.c ****     the HAL_RCC_CSSCallback could be implemented in the user file
1383:./Drivers/STM32F1xx_HAL_Driver/Src/stm32f1xx_hal_rcc.c ****     */
1384:./Drivers/STM32F1xx_HAL_Driver/Src/stm32f1xx_hal_rcc.c **** }
 2243              		.loc 1 1384 1
 2244 0004 00BF     		nop
 2245 0006 BD46     		mov	sp, r7
 2246              		.cfi_def_cfa_register 13
 2247              		@ sp needed
 2248 0008 80BC     		pop	{r7}
 2249              		.cfi_restore 7
 2250              		.cfi_def_cfa_offset 0
 2251 000a 7047     		bx	lr
ARM GAS  C:\Users\ULTIMA~1\AppData\Local\Temp\cc1JA9tE.s 			page 65


 2252              		.cfi_endproc
 2253              	.LFE79:
 2255              		.text
 2256              	.Letext0:
 2257              		.file 2 "c:\\st\\stm32cubeide_1.10.1\\stm32cubeide\\plugins\\com.st.stm32cube.ide.mcu.externaltool
 2258              		.file 3 "c:\\st\\stm32cubeide_1.10.1\\stm32cubeide\\plugins\\com.st.stm32cube.ide.mcu.externaltool
 2259              		.file 4 "Drivers/CMSIS/Device/ST/STM32F1xx/Include/system_stm32f1xx.h"
 2260              		.file 5 "Drivers/CMSIS/Device/ST/STM32F1xx/Include/stm32f103xb.h"
 2261              		.file 6 "Drivers/CMSIS/Device/ST/STM32F1xx/Include/stm32f1xx.h"
 2262              		.file 7 "Drivers/STM32F1xx_HAL_Driver/Inc/stm32f1xx_hal_def.h"
 2263              		.file 8 "Drivers/STM32F1xx_HAL_Driver/Inc/stm32f1xx_hal_rcc.h"
 2264              		.file 9 "Drivers/STM32F1xx_HAL_Driver/Inc/stm32f1xx_hal_rcc_ex.h"
 2265              		.file 10 "Drivers/STM32F1xx_HAL_Driver/Inc/stm32f1xx_hal_gpio.h"
 2266              		.file 11 "Drivers/STM32F1xx_HAL_Driver/Inc/stm32f1xx_hal.h"
ARM GAS  C:\Users\ULTIMA~1\AppData\Local\Temp\cc1JA9tE.s 			page 66

