ARM GAS  C:\Users\ULTIMA~1\AppData\Local\Temp\ccnPljVp.s 			page 1


   1              		.cpu cortex-m3
   2              		.arch armv7-m
   3              		.fpu softvfp
   4              		.eabi_attribute 20, 1
   5              		.eabi_attribute 21, 1
   6              		.eabi_attribute 23, 3
   7              		.eabi_attribute 24, 1
   8              		.eabi_attribute 25, 1
   9              		.eabi_attribute 26, 1
  10              		.eabi_attribute 30, 6
  11              		.eabi_attribute 34, 1
  12              		.eabi_attribute 18, 4
  13              		.file	"timer.c"
  14              		.text
  15              	.Ltext0:
  16              		.cfi_sections	.debug_frame
  17              		.global	timer1_flag
  18              		.section	.bss.timer1_flag,"aw",%nobits
  19              		.align	2
  22              	timer1_flag:
  23 0000 00000000 		.space	4
  24              		.global	timer2_flag
  25              		.section	.bss.timer2_flag,"aw",%nobits
  26              		.align	2
  29              	timer2_flag:
  30 0000 00000000 		.space	4
  31              		.global	timer3_flag
  32              		.section	.bss.timer3_flag,"aw",%nobits
  33              		.align	2
  36              	timer3_flag:
  37 0000 00000000 		.space	4
  38              		.global	timer1_counter
  39              		.section	.bss.timer1_counter,"aw",%nobits
  40              		.align	2
  43              	timer1_counter:
  44 0000 00000000 		.space	4
  45              		.global	timer2_counter
  46              		.section	.bss.timer2_counter,"aw",%nobits
  47              		.align	2
  50              	timer2_counter:
  51 0000 00000000 		.space	4
  52              		.global	timer3_counter
  53              		.section	.bss.timer3_counter,"aw",%nobits
  54              		.align	2
  57              	timer3_counter:
  58 0000 00000000 		.space	4
  59              		.section	.text.setTimer1,"ax",%progbits
  60              		.align	1
  61              		.global	setTimer1
  62              		.syntax unified
  63              		.thumb
  64              		.thumb_func
  66              	setTimer1:
  67              	.LFB68:
  68              		.file 1 "./Core/Src/timer.c"
   1:./Core/Src/timer.c **** 
   2:./Core/Src/timer.c **** #include "timer.h"
ARM GAS  C:\Users\ULTIMA~1\AppData\Local\Temp\ccnPljVp.s 			page 2


   3:./Core/Src/timer.c **** 
   4:./Core/Src/timer.c **** int timer1_flag = 0, timer2_flag = 0, timer3_flag = 0;
   5:./Core/Src/timer.c **** int timer1_counter = 0, timer2_counter = 0, timer3_counter = 0;
   6:./Core/Src/timer.c **** 
   7:./Core/Src/timer.c **** void setTimer1(int duration){
  69              		.loc 1 7 29
  70              		.cfi_startproc
  71              		@ args = 0, pretend = 0, frame = 8
  72              		@ frame_needed = 1, uses_anonymous_args = 0
  73              		@ link register save eliminated.
  74 0000 80B4     		push	{r7}
  75              		.cfi_def_cfa_offset 4
  76              		.cfi_offset 7, -4
  77 0002 83B0     		sub	sp, sp, #12
  78              		.cfi_def_cfa_offset 16
  79 0004 00AF     		add	r7, sp, #0
  80              		.cfi_def_cfa_register 7
  81 0006 7860     		str	r0, [r7, #4]
   8:./Core/Src/timer.c **** 	timer1_counter = duration/TIMER_CYCLE;
  82              		.loc 1 8 27
  83 0008 7B68     		ldr	r3, [r7, #4]
  84 000a 084A     		ldr	r2, .L2
  85 000c 82FB0312 		smull	r1, r2, r2, r3
  86 0010 9210     		asrs	r2, r2, #2
  87 0012 DB17     		asrs	r3, r3, #31
  88 0014 D31A     		subs	r3, r2, r3
  89              		.loc 1 8 17
  90 0016 064A     		ldr	r2, .L2+4
  91 0018 1360     		str	r3, [r2]
   9:./Core/Src/timer.c **** 	timer1_flag = 0;
  92              		.loc 1 9 14
  93 001a 064B     		ldr	r3, .L2+8
  94 001c 0022     		movs	r2, #0
  95 001e 1A60     		str	r2, [r3]
  10:./Core/Src/timer.c **** }
  96              		.loc 1 10 1
  97 0020 00BF     		nop
  98 0022 0C37     		adds	r7, r7, #12
  99              		.cfi_def_cfa_offset 4
 100 0024 BD46     		mov	sp, r7
 101              		.cfi_def_cfa_register 13
 102              		@ sp needed
 103 0026 80BC     		pop	{r7}
 104              		.cfi_restore 7
 105              		.cfi_def_cfa_offset 0
 106 0028 7047     		bx	lr
 107              	.L3:
 108 002a 00BF     		.align	2
 109              	.L2:
 110 002c 67666666 		.word	1717986919
 111 0030 00000000 		.word	timer1_counter
 112 0034 00000000 		.word	timer1_flag
 113              		.cfi_endproc
 114              	.LFE68:
 116              		.section	.text.setTimer2,"ax",%progbits
 117              		.align	1
 118              		.global	setTimer2
ARM GAS  C:\Users\ULTIMA~1\AppData\Local\Temp\ccnPljVp.s 			page 3


 119              		.syntax unified
 120              		.thumb
 121              		.thumb_func
 123              	setTimer2:
 124              	.LFB69:
  11:./Core/Src/timer.c **** 
  12:./Core/Src/timer.c **** void setTimer2(int duration){
 125              		.loc 1 12 29
 126              		.cfi_startproc
 127              		@ args = 0, pretend = 0, frame = 8
 128              		@ frame_needed = 1, uses_anonymous_args = 0
 129              		@ link register save eliminated.
 130 0000 80B4     		push	{r7}
 131              		.cfi_def_cfa_offset 4
 132              		.cfi_offset 7, -4
 133 0002 83B0     		sub	sp, sp, #12
 134              		.cfi_def_cfa_offset 16
 135 0004 00AF     		add	r7, sp, #0
 136              		.cfi_def_cfa_register 7
 137 0006 7860     		str	r0, [r7, #4]
  13:./Core/Src/timer.c **** 	timer2_counter = duration/TIMER_CYCLE;
 138              		.loc 1 13 27
 139 0008 7B68     		ldr	r3, [r7, #4]
 140 000a 084A     		ldr	r2, .L5
 141 000c 82FB0312 		smull	r1, r2, r2, r3
 142 0010 9210     		asrs	r2, r2, #2
 143 0012 DB17     		asrs	r3, r3, #31
 144 0014 D31A     		subs	r3, r2, r3
 145              		.loc 1 13 17
 146 0016 064A     		ldr	r2, .L5+4
 147 0018 1360     		str	r3, [r2]
  14:./Core/Src/timer.c **** 	timer2_flag = 0;
 148              		.loc 1 14 14
 149 001a 064B     		ldr	r3, .L5+8
 150 001c 0022     		movs	r2, #0
 151 001e 1A60     		str	r2, [r3]
  15:./Core/Src/timer.c **** }
 152              		.loc 1 15 1
 153 0020 00BF     		nop
 154 0022 0C37     		adds	r7, r7, #12
 155              		.cfi_def_cfa_offset 4
 156 0024 BD46     		mov	sp, r7
 157              		.cfi_def_cfa_register 13
 158              		@ sp needed
 159 0026 80BC     		pop	{r7}
 160              		.cfi_restore 7
 161              		.cfi_def_cfa_offset 0
 162 0028 7047     		bx	lr
 163              	.L6:
 164 002a 00BF     		.align	2
 165              	.L5:
 166 002c 67666666 		.word	1717986919
 167 0030 00000000 		.word	timer2_counter
 168 0034 00000000 		.word	timer2_flag
 169              		.cfi_endproc
 170              	.LFE69:
 172              		.section	.text.setTimer3,"ax",%progbits
ARM GAS  C:\Users\ULTIMA~1\AppData\Local\Temp\ccnPljVp.s 			page 4


 173              		.align	1
 174              		.global	setTimer3
 175              		.syntax unified
 176              		.thumb
 177              		.thumb_func
 179              	setTimer3:
 180              	.LFB70:
  16:./Core/Src/timer.c **** 
  17:./Core/Src/timer.c **** void setTimer3(int duration){
 181              		.loc 1 17 29
 182              		.cfi_startproc
 183              		@ args = 0, pretend = 0, frame = 8
 184              		@ frame_needed = 1, uses_anonymous_args = 0
 185              		@ link register save eliminated.
 186 0000 80B4     		push	{r7}
 187              		.cfi_def_cfa_offset 4
 188              		.cfi_offset 7, -4
 189 0002 83B0     		sub	sp, sp, #12
 190              		.cfi_def_cfa_offset 16
 191 0004 00AF     		add	r7, sp, #0
 192              		.cfi_def_cfa_register 7
 193 0006 7860     		str	r0, [r7, #4]
  18:./Core/Src/timer.c **** 	timer3_counter = duration/TIMER_CYCLE;
 194              		.loc 1 18 27
 195 0008 7B68     		ldr	r3, [r7, #4]
 196 000a 084A     		ldr	r2, .L8
 197 000c 82FB0312 		smull	r1, r2, r2, r3
 198 0010 9210     		asrs	r2, r2, #2
 199 0012 DB17     		asrs	r3, r3, #31
 200 0014 D31A     		subs	r3, r2, r3
 201              		.loc 1 18 17
 202 0016 064A     		ldr	r2, .L8+4
 203 0018 1360     		str	r3, [r2]
  19:./Core/Src/timer.c **** 	timer3_flag = 0;
 204              		.loc 1 19 14
 205 001a 064B     		ldr	r3, .L8+8
 206 001c 0022     		movs	r2, #0
 207 001e 1A60     		str	r2, [r3]
  20:./Core/Src/timer.c **** }
 208              		.loc 1 20 1
 209 0020 00BF     		nop
 210 0022 0C37     		adds	r7, r7, #12
 211              		.cfi_def_cfa_offset 4
 212 0024 BD46     		mov	sp, r7
 213              		.cfi_def_cfa_register 13
 214              		@ sp needed
 215 0026 80BC     		pop	{r7}
 216              		.cfi_restore 7
 217              		.cfi_def_cfa_offset 0
 218 0028 7047     		bx	lr
 219              	.L9:
 220 002a 00BF     		.align	2
 221              	.L8:
 222 002c 67666666 		.word	1717986919
 223 0030 00000000 		.word	timer3_counter
 224 0034 00000000 		.word	timer3_flag
 225              		.cfi_endproc
ARM GAS  C:\Users\ULTIMA~1\AppData\Local\Temp\ccnPljVp.s 			page 5


 226              	.LFE70:
 228              		.section	.text.timer_run,"ax",%progbits
 229              		.align	1
 230              		.global	timer_run
 231              		.syntax unified
 232              		.thumb
 233              		.thumb_func
 235              	timer_run:
 236              	.LFB71:
  21:./Core/Src/timer.c **** 
  22:./Core/Src/timer.c **** void timer_run(){
 237              		.loc 1 22 17
 238              		.cfi_startproc
 239              		@ args = 0, pretend = 0, frame = 0
 240              		@ frame_needed = 1, uses_anonymous_args = 0
 241              		@ link register save eliminated.
 242 0000 80B4     		push	{r7}
 243              		.cfi_def_cfa_offset 4
 244              		.cfi_offset 7, -4
 245 0002 00AF     		add	r7, sp, #0
 246              		.cfi_def_cfa_register 7
  23:./Core/Src/timer.c **** 	if(timer1_counter > 0){
 247              		.loc 1 23 20
 248 0004 194B     		ldr	r3, .L15
 249 0006 1B68     		ldr	r3, [r3]
 250              		.loc 1 23 4
 251 0008 002B     		cmp	r3, #0
 252 000a 0BDD     		ble	.L11
  24:./Core/Src/timer.c **** 		timer1_counter--;
 253              		.loc 1 24 17
 254 000c 174B     		ldr	r3, .L15
 255 000e 1B68     		ldr	r3, [r3]
 256 0010 013B     		subs	r3, r3, #1
 257 0012 164A     		ldr	r2, .L15
 258 0014 1360     		str	r3, [r2]
  25:./Core/Src/timer.c **** 		if(timer1_counter == 0) timer1_flag = 1;
 259              		.loc 1 25 21
 260 0016 154B     		ldr	r3, .L15
 261 0018 1B68     		ldr	r3, [r3]
 262              		.loc 1 25 5
 263 001a 002B     		cmp	r3, #0
 264 001c 02D1     		bne	.L11
 265              		.loc 1 25 39 discriminator 1
 266 001e 144B     		ldr	r3, .L15+4
 267 0020 0122     		movs	r2, #1
 268 0022 1A60     		str	r2, [r3]
 269              	.L11:
  26:./Core/Src/timer.c **** 	}
  27:./Core/Src/timer.c **** 	if(timer2_counter > 0){
 270              		.loc 1 27 20
 271 0024 134B     		ldr	r3, .L15+8
 272 0026 1B68     		ldr	r3, [r3]
 273              		.loc 1 27 4
 274 0028 002B     		cmp	r3, #0
 275 002a 0BDD     		ble	.L12
  28:./Core/Src/timer.c **** 		timer2_counter--;
 276              		.loc 1 28 17
ARM GAS  C:\Users\ULTIMA~1\AppData\Local\Temp\ccnPljVp.s 			page 6


 277 002c 114B     		ldr	r3, .L15+8
 278 002e 1B68     		ldr	r3, [r3]
 279 0030 013B     		subs	r3, r3, #1
 280 0032 104A     		ldr	r2, .L15+8
 281 0034 1360     		str	r3, [r2]
  29:./Core/Src/timer.c **** 		if(timer2_counter == 0) timer2_flag = 1;
 282              		.loc 1 29 21
 283 0036 0F4B     		ldr	r3, .L15+8
 284 0038 1B68     		ldr	r3, [r3]
 285              		.loc 1 29 5
 286 003a 002B     		cmp	r3, #0
 287 003c 02D1     		bne	.L12
 288              		.loc 1 29 39 discriminator 1
 289 003e 0E4B     		ldr	r3, .L15+12
 290 0040 0122     		movs	r2, #1
 291 0042 1A60     		str	r2, [r3]
 292              	.L12:
  30:./Core/Src/timer.c **** 	}
  31:./Core/Src/timer.c **** 	if(timer3_counter > 0){
 293              		.loc 1 31 20
 294 0044 0D4B     		ldr	r3, .L15+16
 295 0046 1B68     		ldr	r3, [r3]
 296              		.loc 1 31 4
 297 0048 002B     		cmp	r3, #0
 298 004a 0BDD     		ble	.L14
  32:./Core/Src/timer.c **** 		timer3_counter--;
 299              		.loc 1 32 17
 300 004c 0B4B     		ldr	r3, .L15+16
 301 004e 1B68     		ldr	r3, [r3]
 302 0050 013B     		subs	r3, r3, #1
 303 0052 0A4A     		ldr	r2, .L15+16
 304 0054 1360     		str	r3, [r2]
  33:./Core/Src/timer.c **** 		if(timer3_counter == 0) timer3_flag = 1;
 305              		.loc 1 33 21
 306 0056 094B     		ldr	r3, .L15+16
 307 0058 1B68     		ldr	r3, [r3]
 308              		.loc 1 33 5
 309 005a 002B     		cmp	r3, #0
 310 005c 02D1     		bne	.L14
 311              		.loc 1 33 39 discriminator 1
 312 005e 084B     		ldr	r3, .L15+20
 313 0060 0122     		movs	r2, #1
 314 0062 1A60     		str	r2, [r3]
 315              	.L14:
  34:./Core/Src/timer.c **** 	}
  35:./Core/Src/timer.c **** }
 316              		.loc 1 35 1
 317 0064 00BF     		nop
 318 0066 BD46     		mov	sp, r7
 319              		.cfi_def_cfa_register 13
 320              		@ sp needed
 321 0068 80BC     		pop	{r7}
 322              		.cfi_restore 7
 323              		.cfi_def_cfa_offset 0
 324 006a 7047     		bx	lr
 325              	.L16:
 326              		.align	2
ARM GAS  C:\Users\ULTIMA~1\AppData\Local\Temp\ccnPljVp.s 			page 7


 327              	.L15:
 328 006c 00000000 		.word	timer1_counter
 329 0070 00000000 		.word	timer1_flag
 330 0074 00000000 		.word	timer2_counter
 331 0078 00000000 		.word	timer2_flag
 332 007c 00000000 		.word	timer3_counter
 333 0080 00000000 		.word	timer3_flag
 334              		.cfi_endproc
 335              	.LFE71:
 337              		.section	.text.HAL_TIM_PeriodElapsedCallback,"ax",%progbits
 338              		.align	1
 339              		.global	HAL_TIM_PeriodElapsedCallback
 340              		.syntax unified
 341              		.thumb
 342              		.thumb_func
 344              	HAL_TIM_PeriodElapsedCallback:
 345              	.LFB72:
  36:./Core/Src/timer.c **** 
  37:./Core/Src/timer.c **** void HAL_TIM_PeriodElapsedCallback(TIM_HandleTypeDef *htim){
 346              		.loc 1 37 60
 347              		.cfi_startproc
 348              		@ args = 0, pretend = 0, frame = 8
 349              		@ frame_needed = 1, uses_anonymous_args = 0
 350 0000 80B5     		push	{r7, lr}
 351              		.cfi_def_cfa_offset 8
 352              		.cfi_offset 7, -8
 353              		.cfi_offset 14, -4
 354 0002 82B0     		sub	sp, sp, #8
 355              		.cfi_def_cfa_offset 16
 356 0004 00AF     		add	r7, sp, #0
 357              		.cfi_def_cfa_register 7
 358 0006 7860     		str	r0, [r7, #4]
  38:./Core/Src/timer.c **** 	timer_run();
 359              		.loc 1 38 2
 360 0008 FFF7FEFF 		bl	timer_run
  39:./Core/Src/timer.c **** 	button_reading();
 361              		.loc 1 39 2
 362 000c FFF7FEFF 		bl	button_reading
  40:./Core/Src/timer.c **** }
 363              		.loc 1 40 1
 364 0010 00BF     		nop
 365 0012 0837     		adds	r7, r7, #8
 366              		.cfi_def_cfa_offset 8
 367 0014 BD46     		mov	sp, r7
 368              		.cfi_def_cfa_register 13
 369              		@ sp needed
 370 0016 80BD     		pop	{r7, pc}
 371              		.cfi_endproc
 372              	.LFE72:
 374              		.text
 375              	.Letext0:
 376              		.file 2 "c:\\st\\stm32cubeide_1.10.1\\stm32cubeide\\plugins\\com.st.stm32cube.ide.mcu.externaltool
 377              		.file 3 "c:\\st\\stm32cubeide_1.10.1\\stm32cubeide\\plugins\\com.st.stm32cube.ide.mcu.externaltool
 378              		.file 4 "Drivers/CMSIS/Device/ST/STM32F1xx/Include/stm32f103xb.h"
 379              		.file 5 "Drivers/STM32F1xx_HAL_Driver/Inc/stm32f1xx_hal_def.h"
 380              		.file 6 "Drivers/STM32F1xx_HAL_Driver/Inc/stm32f1xx_hal_dma.h"
 381              		.file 7 "Drivers/STM32F1xx_HAL_Driver/Inc/stm32f1xx_hal_tim.h"
ARM GAS  C:\Users\ULTIMA~1\AppData\Local\Temp\ccnPljVp.s 			page 8


 382              		.file 8 "Core/Inc/timer.h"
 383              		.file 9 "Core/Inc/button.h"
ARM GAS  C:\Users\ULTIMA~1\AppData\Local\Temp\ccnPljVp.s 			page 9

